 s4dll

 Timestamp is 4f0e0ee4 (Wed Jan 11 15:36:20 2012)

 Preferred load address is 10000000

 Start         Length     Name                   Class
 0001:00000000 00070cfeH .text                   CODE
 0002:00000000 000015afH .rdata                  DATA
 0002:000015b0 00004549H .edata                  DATA
 0003:00000000 00000004H .CRT$XCA                DATA
 0003:00000004 00000004H .CRT$XCU                DATA
 0003:00000008 00000004H .CRT$XCZ                DATA
 0003:0000000c 00000004H .CRT$XIA                DATA
 0003:00000010 0000000cH .CRT$XIC                DATA
 0003:0000001c 00000004H .CRT$XIZ                DATA
 0003:00000020 00000004H .CRT$XPA                DATA
 0003:00000024 00000004H .CRT$XPX                DATA
 0003:00000028 00000004H .CRT$XPZ                DATA
 0003:0000002c 00000004H .CRT$XTA                DATA
 0003:00000030 00000004H .CRT$XTZ                DATA
 0003:00000040 00011910H .data                   DATA
 0003:00011950 00005c70H .bss                    DATA
 0004:00000000 000000a0H .idata$2                DATA
 0004:000000a0 00000014H .idata$3                DATA
 0004:000000b4 000002d0H .idata$4                DATA
 0004:00000384 000002d0H .idata$5                DATA
 0004:00000654 00000a8aH .idata$6                DATA

  Address         Publics by Value              Rva+Base     Lib:Object

 0001:00000000       _x4reverseShort@4          10001000 f   b4block.obj
 0001:00000020       _x4reverseLong@4           10001020 f   b4block.obj
 0001:00000050       _x4reverseLongLong@4       10001050 f   b4block.obj
 0001:000000a0       _x4reverseDouble@4         100010a0 f   b4block.obj
 0001:000000f0       _b4calcBlanks              100010f0 f   b4block.obj
 0001:00000120       _b4alloc                   10001120 f   b4block.obj
 0001:00000190       _b4free                    10001190 f   b4block.obj
 0001:000001d0       _b4leafInit                100011d0 f   b4block.obj
 0001:00000310       _b4calcDups                10001310 f   b4block.obj
 0001:00000340       _x4putInfo                 10001340 f   b4block.obj
 0001:000003a0       _b4insertLeaf              100013a0 f   b4block.obj
 0001:00000900       ??1Find4file@@QAE@XZ       10001900 f i b4block.obj
 0001:00000910       ??4Find4file@@QAEAAV0@ABV0@@Z 10001910 f i b4block.obj
 0001:00000930       ??_FFind4file@@QAEXXZ      10001930 f i b4block.obj
 0001:00000940       _b4insertBranch            10001940 f   b4block.obj
 0001:00000cf0       _b4reindex                 10001cf0 f   b4block.obj
 0001:00000e70       _b4doFlush                 10001e70 f   b4block.obj
 0001:00000f00       _b4goEof                   10001f00 f   b4block.obj
 0001:00000f30       _b4key@8                   10001f30 f   b4block.obj
 0001:000010f0       _b4dataLeaf                100020f0 f   b4block.obj
 0001:00001100       _b4brReplace               10002100 f   b4block.obj
 0001:00001170       _b4rBrseek                 10002170 f   b4block.obj
 0001:00001250       _b4seek                    10002250 f   b4block.obj
 0001:00001320       ?u4tailCmp@@YAHPBX0I@Z     10002320 f   b4block.obj
 0001:00001360       _b4leafSeek                10002360 f   b4block.obj
 0001:00001970       _b4removeLeaf              10002970 f   b4block.obj
 0001:00001f00       _b4remove                  10002f00 f   b4block.obj
 0001:00001f80       _b4skip@8                  10002f80 f   b4block.obj
 0001:000021e0       _b4nodeGetFilePosition     100031e0 f   B4NODE.obj
 0001:00002220       _b4nodeSetFromFilePosition 10003220 f   B4NODE.obj
 0001:00002250       _b4nodeSubtractBlocks      10003250 f   B4NODE.obj
 0001:00002270       _b4nodeAddBlocks           10003270 f   B4NODE.obj
 0001:00002290       _b4getFilePosition         10003290 f   B4NODE.obj
 0001:000022b0       _c4atod@8                  100032b0 f   c4.obj
 0001:00002300       _c4atod2@12                10003300 f   c4.obj
 0001:00002350       _c4atoi@8                  10003350 f   c4.obj
 0001:000023a0       _c4atol@8                  100033a0 f   c4.obj
 0001:000023f0       _c4atofloat@8              100033f0 f   c4.obj
 0001:00002670       _c4atoul@8                 10003670 f   c4.obj
 0001:000026d0       _c4atoLongLong@8           100036d0 f   c4.obj
 0001:00002720       _c4utoa@4                  10003720 f   c4.obj
 0001:00002740       _c4utoaLen@12              10003740 f   c4.obj
 0001:00002770       _c4clip@12                 10003770 f   c4.obj
 0001:000027e0       _c4dtoa45@20               100037e0 f   c4.obj
 0001:00002aa0       _c4encode@16               10003aa0 f   c4.obj
 0001:00002b30       _c4ltoa45@12               10003b30 f   c4.obj
 0001:00002cb0       _c4trimNLow                10003cb0 f   c4.obj
 0001:00002d10       _c4trimN@8                 10003d10 f   c4.obj
 0001:00002d30       _c4lower@4                 10003d30 f   c4.obj
 0001:00002d40       _c4upper@4                 10003d40 f   c4.obj
 0001:00002d50       _c4calcType@4              10003d50 f   c4.obj
 0001:00002d70       _DllMain@12                10003d70 f   C4CODE.obj
 0001:00002d90       ?c4getFuncPtr@@YGHPAUHINSTANCE__@@PBDPAPAX@Z 10003d90 f   C4CODE.obj
 0001:00002db0       _c4compress                10003db0 f   C4CODE.obj
 0001:00002e30       _c4uncompress              10003e30 f   C4CODE.obj
 0001:00002e50       _code4initLow@20           10003e50 f   C4CODE.obj
 0001:00003440       _code4allocLow@12          10004440 f   C4CODE.obj
 0001:000034f0       _code4initAllocLow@4       100044f0 f   C4CODE.obj
 0001:00003530       _code4actionCode@4         10004530 f   C4CODE.obj
 0001:00003540       _expr4calcDelete@8         10004540 f   C4CODE.obj
 0001:000035b0       _code4calcReset@4          100045b0 f   C4CODE.obj
 0001:00003600       _code4initUndo@4           10004600 f   C4CODE.obj
 0001:00003be0       _dfile4data                10004be0 f   C4CODE.obj
 0001:00003c40       _tran4dataName             10004c40 f   C4CODE.obj
 0001:00003d50       _code4idDataTrans          10004d50 f   C4CODE.obj
 0001:00003e20       _code4idDataAlias          10004e20 f   C4CODE.obj
 0001:00003ef0       _tran4dataPtrOnly          10004ef0 f   C4CODE.obj
 0001:00003f30       _tran4data                 10004f30 f   C4CODE.obj
 0001:00003fe0       _code4data@8               10004fe0 f   C4CODE.obj
 0001:000040a0       _code4version@4            100050a0 f   C4CODE.obj
 0001:000040b0       _code4indexFormat@4        100050b0 f   C4CODE.obj
 0001:000040e0       _code4largeOn@4            100050e0 f   C4CODE.obj
 0001:00004100       _code4largeOnLow           10005100 f   C4CODE.obj
 0001:00004110       _code4indexExtension@4     10005110 f   C4CODE.obj
 0001:00004190       _code4memoExtension@4      10005190 f   C4CODE.obj
 0001:00004200       _u4switch@0                10005200 f   C4CODE.obj
 0001:00004210       _code4enterExclusive@12    10005210 f   C4CODE.obj
 0001:00004280       _code4exitExclusive@8      10005280 f   C4CODE.obj
 0001:000042b0       _c4getLargeOn@4            100052b0 f   C4CODE.obj
 0001:000042d0       _code4tranInitUndoLow      100052d0 f   C4CODE.obj
 0001:00004330       _code4osVersion@0          10005330 f   C4CODE.obj
 0001:000043a0       ?code4validateModifyTemp@@YAHPAUCODE4St@@PBDE@Z 100053a0 f   C4CODE.obj
 0001:00004500       ?code4validateAddOpen@@YAHPAUCODE4St@@PBDE@Z 10005500 f   C4CODE.obj
 0001:00004760       ?code4validateAddClose@@YAHPAUCODE4St@@PBDE@Z 10005760 f   C4CODE.obj
 0001:00004900       _code4validate@12          10005900 f   C4CODE.obj
 0001:00004c60       ?code4validateUndo@@YAHPAUCODE4St@@@Z 10005c60 f   C4CODE.obj
 0001:00004c90       _code4additionalFunction@24 10005c90 f   C4CODE.obj
 0001:00004ca0       _code4additionalFunctionOdbc@24 10005ca0 f   C4CODE.obj
 0001:00004d40       _code4logInfoDo@8          10005d40 f   C4CODE.obj
 0001:00004d70       _code4encryptFile@8        10005d70 f   C4CODE.obj
 0001:00004d90       _server4initEncrypt        10005d90 f   C4CODE.obj
 0001:000051f0       _code4encryptFileGet       100061f0 f   C4CODE.obj
 0001:00005260       _code4encryptFileHook      10006260 f   C4CODE.obj
 0001:00005280       _code4fileDecrypt          10006280 f   C4CODE.obj
 0001:000052b0       _code4filePreprocess       100062b0 f   C4CODE.obj
 0001:000052e0       _code4filePreprocessDone   100062e0 f   C4CODE.obj
 0001:00005300       _code4unlockAutoCB@4       10006300 f   C4CODE.obj
 0001:00005310       _code4unlockAutoSetCB@8    10006310 f   C4CODE.obj
 0001:00005330       _connect4bufferDisconnect  10006330 f   c4buffer.obj
 0001:00005380       _connect4bufferInit        10006380 f   c4buffer.obj
 0001:00005520       _connect4bufferInitUndo    10006520 f   c4buffer.obj
 0001:00005610       ?error4isolated@@YAHPAUCODE4St@@PAUSERVER4CLIENTSt@@HJ@Z 10006610 f   c4buffer.obj
 0001:00005650       _connect4bufferInitRead    10006650 f   c4buffer.obj
 0001:00005770       _connect4bufferReceive@16  10006770 f   c4buffer.obj
 0001:00006090       _connect4bufferSend@12     10007090 f   c4buffer.obj
 0001:00006390       _connect4bufferSendLong@8  10007390 f   c4buffer.obj
 0001:000063c0       _connect4bufferReceiveChar@8 100073c0 f   c4buffer.obj
 0001:000063f0       _connect4bufferReceiveShort@8 100073f0 f   c4buffer.obj
 0001:00006440       _connect4bufferReceiveLong@8 10007440 f   c4buffer.obj
 0001:00006470       _connect4bufferReceiveString@8 10007470 f   c4buffer.obj
 0001:000064c0       _connect4bufferReceiveWideString@8 100074c0 f   c4buffer.obj
 0001:00006500       _connect4bufferSendString@8 10007500 f   c4buffer.obj
 0001:00006540       _connect4bufferSendWideString@8 10007540 f   c4buffer.obj
 0001:00006580       _connect4bufferSendShort@8 10007580 f   c4buffer.obj
 0001:000065b0       _connect4bufferSendChar@8  100075b0 f   c4buffer.obj
 0001:000065d0       _connect4bufferSendFlush@4 100075d0 f   c4buffer.obj
 0001:000066a0       _connect4bufferWriteRetrieve 100076a0 f   c4buffer.obj
 0001:00006730       _connect4disconnect        10007730 f   C4CONECT.obj
 0001:00006740       _connect4init              10007740 f   C4CONECT.obj
 0001:00006800       _connect4initUndo          10007800 f   C4CONECT.obj
 0001:00006890       _connect4localTcpAddress   10007890 f   C4CONECT.obj
 0001:000068e0       _connect4peerTcpAddress    100078e0 f   C4CONECT.obj
 0001:00006910       _connect4workContinue      10007910 f   C4CONECT.obj
 0001:000069f0       _connect4lowCompressConfigure 100079f0 f   c4conlow.obj
 0001:00006a20       _connect4lowUncompress     10007a20 f   c4conlow.obj
 0001:00006a70       _address4makeNetID         10007a70 f   c4conlow.obj
 0001:00006aa0       _connect4lowEnterExclusive 10007aa0 f   c4conlow.obj
 0001:00006ac0       _connect4lowExitExclusive  10007ac0 f   c4conlow.obj
 0001:00006ad0       _connect4lowAccept         10007ad0 f   c4conlow.obj
 0001:00006b30       _connect4lowClose          10007b30 f   c4conlow.obj
 0001:00006ba0       _connect4lowConnect        10007ba0 f   c4conlow.obj
 0001:00006bc0       _connect4lowConnectConnect 10007bc0 f   c4conlow.obj
 0001:00006e20       _connect4lowListen         10007e20 f   c4conlow.obj
 0001:00006f50       _connect4lowLocalTcpAddress 10007f50 f   c4conlow.obj
 0001:00006fa0       _connect4lowPeerTcpAddress 10007fa0 f   c4conlow.obj
 0001:00006ff0       _connect4lowRead           10007ff0 f   c4conlow.obj
 0001:00007280       _connect4lowWrite          10008280 f   c4conlow.obj
 0001:00007490       _connect4lowReadAsynchronous 10008490 f   c4conlow.obj
 0001:00007550       _connect4lowWriteAsynchronous 10008550 f   c4conlow.obj
 0001:00007670       _connect4lowWriteSynchronous 10008670 f   c4conlow.obj
 0001:000077b0       ?htond@@YANN@Z             100087b0 f   c4conlow.obj
 0001:000077c0       _connect4threadRegisterShutdown 100087c0 f   C4THREAD.obj
 0001:00007930       _connect4threadCompleteRequest 10008930 f   C4THREAD.obj
 0001:00007980       _connect4threadInit        10008980 f   C4THREAD.obj
 0001:00007a90       _connect4threadInitUndo    10008a90 f   C4THREAD.obj
 0001:00007b80       _connect4threadReadCompleted 10008b80 f   C4THREAD.obj
 0001:00008060       _connect4threadReadStore   10009060 f   C4THREAD.obj
 0001:00008230       _connect4threadReadRequest 10009230 f   C4THREAD.obj
 0001:00008280       _connect4threadReadSignalRetrieve 10009280 f   C4THREAD.obj
 0001:000082d0       _connect4threadWriteCompleted 100092d0 f   C4THREAD.obj
 0001:00008380       _connect4threadWriteSignalRetrieve 10009380 f   C4THREAD.obj
 0001:000083c0       _connection4init           100093c0 f   c4com.obj
 0001:000083e0       _connection4initUndo       100093e0 f   c4com.obj
 0001:000084f0       _connection4receiveMessage 100094f0 f   c4com.obj
 0001:00008fa0       _connection4addData        10009fa0 f   c4com.obj
 0001:000090b0       _connection4clear          1000a0b0 f   c4com.obj
 0001:000090f0       _connection4sendMessageLow@8 1000a0f0 f   c4com.obj
 0001:000091f0       _connection4setStatus      1000a1f0 f   c4com.obj
 0001:00009230       _bitmap4reduce             1000a230 f   C4CONST.obj
 0001:000092f0       _bitmap4redistribute       1000a2f0 f   C4CONST.obj
 0001:00009640       _bitmap4redistributeLeaf   1000a640 f   C4CONST.obj
 0001:00009a20       _bitmap4redistributeBranch 1000aa20 f   C4CONST.obj
 0001:00009be0       _bitmap4seek               1000abe0 f   C4CONST.obj
 0001:00009d80       _const4return              1000ad80 f   C4CONST.obj
 0001:00009da0       _const4memAlloc            1000ada0 f   C4CONST.obj
 0001:00009df0       _const4duplicate           1000adf0 f   C4CONST.obj
 0001:00009e70       _const4get                 1000ae70 f   C4CONST.obj
 0001:00009f10       _const4less                1000af10 f   C4CONST.obj
 0001:0000a050       _const4eq                  1000b050 f   C4CONST.obj
 0001:0000a0a0       _const4lessEq              1000b0a0 f   C4CONST.obj
 0001:0000a1e0       _const4addNe               1000b1e0 f   C4CONST.obj
 0001:0000a260       _const4deleteNe            1000b260 f   C4CONST.obj
 0001:0000a280       _c4indexBlockSizeGet       1000b280 f   c4set.obj
 0001:0000a2a0       _c4indexMultiplierGet      1000b2a0 f   c4set.obj
 0001:0000a2c0       _code4indexBlockSizeSet@8  1000b2c0 f   c4set.obj
 0001:0000a360       _c4setRunAsService@8       1000b360 f   c4set.obj
 0001:0000a380       _c4getPreprocess@4         1000b380 f   c4set.obj
 0001:0000a3b0       _c4getFileAccessed@4       1000b3b0 f   c4set.obj
 0001:0000a3e0       _code4setPreprocessFile@8  1000b3e0 f   c4set.obj
 0001:0000a420       _c4getTimeout@4            1000b420 f   c4set.obj
 0001:0000a450       _c4getDecimals@4           1000b450 f   c4set.obj
 0001:0000a460       _c4setDecimals@8           1000b460 f   c4set.obj
 0001:0000a490       _code4limitKeySizeSet@8    1000b490 f   c4set.obj
 0001:0000a4c0       ?tran4lowCloseDelayed@@YAXPAUTRAN4St@@@Z 1000b4c0 f   c4trans.obj
 0001:0000a500       _tran4getTime              1000b500 f   c4trans.obj
 0001:0000a570       _tran4fileLowInit          1000b570 f   c4trans.obj
 0001:0000a5b0       ?tran4fileLowAppend@@YGHPAUTRAN4FILE_LOWSt@@PAULOG4HEADER@@PBDH@Z 1000b5b0 f   c4trans.obj
 0001:0000a7c0       _tran4fileAppend@16        1000b7c0 f   c4trans.obj
 0001:0000a840       _tran4lowAppend@12         1000b840 f   c4trans.obj
 0001:0000a8c0       _tran4fileLowClose         1000b8c0 f   c4trans.obj
 0001:0000a920       _tran4fileClose@4          1000b920 f   c4trans.obj
 0001:0000a950       _tran4fileLowCreate        1000b950 f   c4trans.obj
 0001:0000aa80       _tran4fileCreate           1000ba80 f   c4trans.obj
 0001:0000aaa0       _tran4fileLowLenSet        1000baa0 f   c4trans.obj
 0001:0000aac0       _tran4fileLowOpen          1000bac0 f   c4trans.obj
 0001:0000ae90       _tran4read@4               1000be90 f   c4trans.obj
 0001:0000afa0       ?tran4fileLowTop@@YGHPAUTRAN4FILE_LOWSt@@PAUTRAN4St@@@Z 1000bfa0 f   c4trans.obj
 0001:0000b000       _tran4fileTop@8            1000c000 f   c4trans.obj
 0001:0000b020       ?tran4fileLowBottom@@YGHPAUTRAN4FILE_LOWSt@@PAUTRAN4St@@@Z 1000c020 f   c4trans.obj
 0001:0000b080       _tran4fileBottom@8         1000c080 f   c4trans.obj
 0001:0000b0c0       ?tran4fileLowSkip@@YGHPAUTRAN4FILE_LOWSt@@PAUTRAN4St@@H@Z 1000c0c0 f   c4trans.obj
 0001:0000b1e0       _tran4fileSkip@12          1000c1e0 f   c4trans.obj
 0001:0000b220       _tran4getData@8            1000c220 f   c4trans.obj
 0001:0000b270       _tran4set@32               1000c270 f   c4trans.obj
 0001:0000b520       _tran4putData@12           1000c520 f   c4trans.obj
 0001:0000b5a0       _tran4lowUnappend          1000c5a0 f   c4trans.obj
 0001:0000b7c0       _tran4lowUnwrite           1000c7c0 f   c4trans.obj
 0001:0000bb20       _tran4lowStart@12          1000cb20 f   c4trans.obj
 0001:0000bc60       _code4tranRollbackSingle   1000cc60 f   c4trans.obj
 0001:0000bd00       _tran4lowRollback@12       1000cd00 f   c4trans.obj
 0001:0000bf00       _tran4lowCommitPhaseOne@12 1000cf00 f   c4trans.obj
 0001:0000c040       _tran4lowCommitPhaseTwo@12 1000d040 f   c4trans.obj
 0001:0000c3d0       _code4tranCommit@4         1000d3d0 f   c4trans.obj
 0001:0000c440       _code4tranCommitSingle@4   1000d440 f   c4trans.obj
 0001:0000c4a0       _code4transFileEnable      1000d4a0 f   c4trans.obj
 0001:0000c550       _code4transFileEnableBackup@12 1000d550 f   c4trans.obj
 0001:0000c620       _tran4addUser              1000d620 f   c4trans.obj
 0001:0000c7f0       _code4transFilePopulate    1000d7f0 f   c4trans.obj
 0001:0000c930       _tran4freeLocks@8          1000d930 f   c4trans.obj
 0001:0000c980       _tran4closeAll             1000d980 f   c4trans.obj
 0001:0000c9f0       _code4tranInitLow          1000d9f0 f   c4trans.obj
 0001:0000ca40       _tran4fileLowMarkBackupClose 1000da40 f   c4trans.obj
 0001:0000ca80       _code4transInitUndo@4      1000da80 f   c4trans.obj
 0001:0000cbf0       _code4transInit            1000dbf0 f   c4trans.obj
 0001:0000cc10       _code4tranLockTransactions@8 1000dc10 f   c4trans.obj
 0001:0000cce0       _code4tranUnlockTransactions@8 1000dce0 f   c4trans.obj
 0001:0000cd60       _tran4lock                 1000dd60 f   c4trans.obj
 0001:0000cf20       _tran4active               1000df20 f   c4trans.obj
 0001:0000d0c0       _code4lockClear@4          1000e0c0 f   c4trans.obj
 0001:0000d100       _code4tranStatusCB@4       1000e100 f   c4trans.obj
 0001:0000d120       _code4tranStatusSetCB@8    1000e120 f   c4trans.obj
 0001:0000d140       _code4connectionStatus@4   1000e140 f   c4util.obj
 0001:0000dc50       _d4assignAutoTimestampField 1000ec50 f   D4APPEND.obj
 0001:0000dc90       _d4lockAppendRecord@8      1000ec90 f   D4APPEND.obj
 0001:0000ddc0       _d4transEnabled            1000edc0 f   D4APPEND.obj
 0001:0000de10       _d4startMiniTransactionIfRequired 1000ee10 f   D4APPEND.obj
 0001:0000de70       _d4append@4                1000ee70 f   D4APPEND.obj
 0001:0000ea80       _d4appendOledb@4           1000fa80 f   D4APPEND.obj
 0001:0000eae0       _d4appendBlank@4           1000fae0 f   D4APPEND.obj
 0001:0000eb20       _d4appendStartLow@8        1000fb20 f   D4APPEND.obj
 0001:0000eb70       _d4appendStart@8           1000fb70 f   D4APPEND.obj
 0001:0000eba0       _D4appendDirect@8          1000fba0 f   D4APPEND.obj
 0001:0000ebf0       _d4unappend@4              1000fbf0 f   D4APPEND.obj
 0001:0000eec0       _d4bottom@4                1000fec0 f   D4BOTTOM.obj
 0001:0000f090       _dfile4closeLow            10010090 f   d4close.obj
 0001:0000f250       _code4dataFileCloseAll     10010250 f   d4close.obj
 0001:0000f2a0       _dfile4close               100102a0 f   d4close.obj
 0001:0000f330       _d4closeTemp               10010330 f   d4close.obj
 0001:0000f360       _d4logClose                10010360 f   d4close.obj
 0001:0000f400       _d4close@4                 10010400 f   d4close.obj
 0001:0000f6d0       _d4createTemp@12           100106d0 f   D4CREATE.obj
 0001:0000f720       _d4createLow@16            10010720 f   D4CREATE.obj
 0001:0000fa90       _d4create@16               10010a90 f   D4CREATE.obj
 0001:0000fb40       _format4createName         10010b40 f   D4CREATE.obj
 0001:0000fb70       _dfile4verifyNotAlreadyOpen 10010b70 f   D4CREATE.obj
 0001:0000fbc0       _d4logCreate               10010bc0 f   D4CREATE.obj
 0001:0000ff50       _dfile4create              10010f50 f   D4CREATE.obj
 0001:00011380       _d4compress@12             10012380 f   D4CREATE.obj
 0001:00012290       _d4alias@4                 10013290 f   d4data.obj
 0001:000122c0       _d4aliasFix                100132c0 f   d4data.obj
 0001:00012300       _d4aliasSet@8              10013300 f   d4data.obj
 0001:00012360       _d4blankLow@8              10013360 f   d4data.obj
 0001:000123f0       _d4blank@4                 100133f0 f   d4data.obj
 0001:00012430       _d4bof@4                   10013430 f   d4data.obj
 0001:00012470       _d4delete@4                10013470 f   d4data.obj
 0001:000124a0       _d4eof@4                   100134a0 f   d4data.obj
 0001:000124e0       _d4fileName@4              100134e0 f   d4data.obj
 0001:00012510       _d4logStatusCB@4           10013510 f   d4data.obj
 0001:00012540       _d4readOld                 10013540 f   d4data.obj
 0001:000125b0       _d4recall@4                100135b0 f   d4data.obj
 0001:000125e0       _d4recCountLessEq@8        100135e0 f   d4data.obj
 0001:00012640       _d4recCountLess@8          10013640 f   d4data.obj
 0001:000126a0       _d4recCountGreater@8       100136a0 f   d4data.obj
 0001:00012700       _d4recCountDo@4            10013700 f   d4data.obj
 0001:00012710       _d4recCountDo2@8           10013710 f   d4data.obj
 0001:000127c0       _d4recWidthLow@4           100137c0 f   d4data.obj
 0001:00012840       _d4verify                  10013840 f   d4data.obj
 0001:000128c0       _d4versionNumber@4         100138c0 f   d4data.obj
 0001:00012950       _d4compatibilityExport@4   10013950 f   d4data.obj
 0001:00012970       _d4readBufferConfigure@8   10013970 f   d4data.obj
 0001:000129c0       _d4indexList@4             100139c0 f   d4data.obj
 0001:000129f0       _date4isLeap@4             100139f0 f   D4DATE.obj
 0001:00012a40       _c4monDy@16                10013a40 f   D4DATE.obj
 0001:00012af0       _c4ytoj@4                  10013af0 f   D4DATE.obj
 0001:00012b50       _date4assignLow@12         10013b50 f   D4DATE.obj
 0001:00012c50       _date4cdow@4               10013c50 f   D4DATE.obj
 0001:00012c70       _date4cmonth@4             10013c70 f   D4DATE.obj
 0001:00012c90       _date4dow@4                10013c90 f   D4DATE.obj
 0001:00012cc0       _date4format@12            10013cc0 f   D4DATE.obj
 0001:00012e20       _date4formatMdx@4          10013e20 f   D4DATE.obj
 0001:00012e50       _date4formatMdx2@8         10013e50 f   D4DATE.obj
 0001:00012e90       _date4init@12              10013e90 f   D4DATE.obj
 0001:00013130       _date4yymmddToJulianLong@12 10014130 f   D4DATE.obj
 0001:00013200       _date4long@4               10014200 f   D4DATE.obj
 0001:00013290       _date4timeNow@4            10014290 f   D4DATE.obj
 0001:000132f0       _date4today@4              100142f0 f   D4DATE.obj
 0001:00013350       _date4timeNowFull          10014350 f   D4DATE.obj
 0001:000133e0       _lock4groupLock            100143e0 f   d4extra.obj
 0001:00013480       _lock4groupUnlock          10014480 f   d4extra.obj
 0001:000135e0       _d4field@8                 100145e0 f   d4field.obj
 0001:00013630       _d4fieldJ@8                10014630 f   d4field.obj
 0001:000136a0       _d4fieldNull@4             100146a0 f   d4field.obj
 0001:000136d0       _d4fieldNumber@8           100146d0 f   d4field.obj
 0001:000137f0       _f4nullable@4              100147f0 f   d4field.obj
 0001:00013800       _dfile4read                10014800 f   d4file.obj
 0001:000138b0       _dfile4recCount@8          100148b0 f   d4file.obj
 0001:00013990       _dfile4name                10014990 f   d4file.obj
 0001:000139a0       _d4fullPath@4              100149a0 f   d4file.obj
 0001:000139c0       _dfile4getAutoIncrementValue 100149c0 f   d4file.obj
 0001:00013a10       _dfile4updateHeader        10014a10 f   d4file.obj
 0001:00013b60       _d4changed@8               10014b60 f   D4FLUSH.obj
 0001:00013ba0       _d4flush@4                 10014ba0 f   D4FLUSH.obj
 0001:00013be0       _d4flushData               10014be0 f   D4FLUSH.obj
 0001:00013c20       _dfile4flushIndex          10014c20 f   D4FLUSH.obj
 0001:00013c80       _dfile4flushData           10014c80 f   D4FLUSH.obj
 0001:00013cc0       _dfile4updateIndexes       10014cc0 f   D4FLUSH.obj
 0001:00013d00       _d4update@4                10014d00 f   D4FLUSH.obj
 0001:00013d90       _d4updateRecord            10014d90 f   D4FLUSH.obj
 0001:00013f20       _d4refresh@4               10014f20 f   D4FRESH.obj
 0001:00013f60       _dfile4refresh             10014f60 f   D4FRESH.obj
 0001:00013fd0       _d4goLow@12                10014fd0 f   d4go.obj
 0001:00013ff0       _d4goLow2@16               10014ff0 f   d4go.obj
 0001:00014240       _dfile4goData              10015240 f   d4go.obj
 0001:00014340       _d4goEof@4                 10015340 f   d4go.obj
 0001:000143c0       _d4goDirectRead@16         100153c0 f   d4go.obj
 0001:00014410       _d4freeBlocks@4            10015410 f   d4index.obj
 0001:00014470       _d4index@8                 10015470 f   d4index.obj
 0001:00014790       _dfile4index               10015790 f   d4index.obj
 0001:00014810       ?d4packMonitor@@YAXPAX@Z   10015810 f   d4index.obj
 0001:00014810       ?d4reindexMonitor@@YAXPAX@Z 10015810 f   d4index.obj
 0001:00014810       ?i4createMonitor@@YAXPAX@Z 10015810 f   d4index.obj
 0001:000148a0       ?d4reindexThread@@YAXPAX@Z 100158a0 f   d4index.obj
 0001:000148c0       _d4reindexWithProgress@12  100158c0 f   d4index.obj
 0001:00014a10       _d4reindex@4               10015a10 f   d4index.obj
 0001:00014ad0       _code4unlockAuto@4         10015ad0 f   D4INLINE.obj
 0001:00014b20       _d4lock@8                  10015b20 f   d4lock.obj
 0001:00014b40       _d4lockInternal@16         10015b40 f   d4lock.obj
 0001:00014db0       _d4lockAddAppend@4         10015db0 f   d4lock.obj
 0001:00014e60       _d4lockAddAll@4            10015e60 f   d4lock.obj
 0001:00014f10       _d4lockAddFile@4           10015f10 f   d4lock.obj
 0001:00014fc0       _d4lockAdd@8               10015fc0 f   d4lock.obj
 0001:000150a0       _d4lockAll@4               100160a0 f   d4lock.obj
 0001:000150b0       _d4lockAllInternal@8       100160b0 f   d4lock.obj
 0001:00015160       _d4lockAppend@4            10016160 f   d4lock.obj
 0001:00015170       _d4lockAppendInternal@8    10016170 f   d4lock.obj
 0001:00015390       _d4lockFile@4              10016390 f   d4lock.obj
 0001:000153b0       _d4lockFileInternal@12     100163b0 f   d4lock.obj
 0001:000156a0       _d4lockTest@12             100166a0 f   d4lock.obj
 0001:00015750       _d4lockTestAppend@4        10016750 f   d4lock.obj
 0001:000157f0       _setServer4global@4        100167f0 f   d4main.obj
 0001:00015810       _setService@0              10016810 f   d4main.obj
 0001:00015820       _server4taskbarIcon        10016820 f   d4main.obj
 0001:000158d0       _InitApplication@4         100168d0 f   d4main.obj
 0001:00015960       ?doServerGui@@YAXQAUHINSTANCE__@@QAX@Z 10016960 f   d4main.obj
 0001:00015f50       _InitInstance@8            10016f50 f   d4main.obj
 0001:00016160       ?initAboutDialog@@YAXPAUHWND__@@J@Z 10017160 f   d4main.obj
 0001:00016400       _AboutProc@16              10017400 f   d4main.obj
 0001:00016480       ?AboutLicence@@YGJPAUHWND__@@IIJ@Z 10017480 f   d4main.obj
 0001:000166c0       ?UpdateWindowGUI@@YAXXZ    100176c0 f   d4main.obj
 0001:00016970       ?AboutConfig@@YGJPAUHWND__@@IIJ@Z 10017970 f   d4main.obj
 0001:00016b10       ?menu4about@@YAXPAUHWND__@@P6GH0IIJ@Z@Z 10017b10 f   d4main.obj
 0001:00016b60       ?menu4licence@@YAXPAUHWND__@@P6GH0IIJ@Z@Z 10017b60 f   d4main.obj
 0001:00016ba0       ?start4config@@YAXPAUHWND__@@P6GH0IIJ@Z@Z 10017ba0 f   d4main.obj
 0001:00016bd0       ?server4getRegistryString@@YAHPAUHKEY__@@PBD1PADK@Z 10017bd0 f   d4main.obj
 0001:00016c40       ?server4setRegistryString@@YAHPAUHKEY__@@PBD11K@Z 10017c40 f   d4main.obj
 0001:00016cb0       ?runProcess@@YAHPAD@Z      10017cb0 f   d4main.obj
 0001:00016d00       ?mainParentNotify@@YAXIJPAUHWND__@@@Z 10017d00 f   d4main.obj
 0001:00016f50       _MainWndProc@16            10017f50 f   d4main.obj
 0001:00017320       _local4main                10018320 f   d4main.obj
 0001:00017490       _d4serverInitialize        10018490 f   d4main.obj
 0001:00017530       _d4server@4                10018530 f   d4main.obj
 0001:00017850       _server4initUser           10018850 f   d4main.obj
 0001:00017a90       _d4copyTable@12            10018a90 f   D4MODIFY.obj
 0001:00017ef0       _d4replace@12              10018ef0 f   D4MODIFY.obj
 0001:00018130       _d4fieldsAdd@12            10019130 f   D4MODIFY.obj
 0001:00018a00       _d4modifyStructure@12      10019a00 f   D4MODIFY.obj
 0001:00018f90       _d4fieldsRemove@12         10019f90 f   D4MODIFY.obj
 0001:000199f0       _d4openConcludeSetupTransactions 1001a9f0 f   D4OPEN.obj
 0001:00019bd0       _d4open@8                  1001abd0 f   D4OPEN.obj
 0001:0001a600       _d4openClone@4             1001b600 f   D4OPEN.obj
 0001:0001ae00       _dfile4open                1001be00 f   D4OPEN.obj
 0001:0001bce0       _code4optStart@4           1001cce0 f   D4OPT.obj
 0001:0001be00       _code4optRestart           1001ce00 f   D4OPT.obj
 0001:0001c200       _code4optSuspend@4         1001d200 f   D4OPT.obj
 0001:0001c2e0       _d4optimizeWrite@8         1001d2e0 f   D4OPT.obj
 0001:0001c320       _dfile4optimizeWrite       1001d320 f   D4OPT.obj
 0001:0001c8e0       ?d4packThread@@YAXPAX@Z    1001d8e0 f   d4pack.obj
 0001:0001c900       _d4packWithProgress@12     1001d900 f   d4pack.obj
 0001:0001ca20       _d4pack@4                  1001da20 f   d4pack.obj
 0001:0001cc50       _d4packData@4              1001dc50 f   d4pack.obj
 0001:0001cd20       _dfile4packData            1001dd20 f   d4pack.obj
 0001:0001cf20       _d4position@4              1001df20 f   D4POSITI.obj
 0001:0001d060       _d4position2@8             1001e060 f   D4POSITI.obj
 0001:0001d090       _d4positionSet@12          1001e090 f   D4POSITI.obj
 0001:0001d250       _d4remove@4                1001e250 f   D4REMOVE.obj
 0001:0001d2a0       _dfile4remove@4            1001e2a0 f   D4REMOVE.obj
 0001:0001d350       ?tcp4charToAddress@@YAHPBDEPAUTCP4ADDRESS@@@Z 1001e350 f   d4secure.obj
 0001:0001d450       ?f4tcpAddress@@YAHPAUFIELD4St@@PAUTCP4ADDRESS@@@Z 1001e450 f   d4secure.obj
 0001:0001d480       ?tcp4addressToChar@@YAXPADUTCP4ADDRESS@@@Z 1001e480 f   d4secure.obj
 0001:0001d510       ?account4userInit@@YGHPAUACCOUNT4USER@@PAUACCOUNT4@@PAUPRIVILEGE4@@UTCP4ADDRESS@@PBD4@Z 1001e510 f   d4secure.obj
 0001:0001d8c0       ?account4userAllowReadLow@@YGEPAUACCOUNT4USER@@PAUDATA4St@@@Z 1001e8c0 f   d4secure.obj
 0001:0001d900       ?account4userAllowAppend@@YGEPAUACCOUNT4USER@@PAUDATA4St@@@Z 1001e900 f   d4secure.obj
 0001:0001d950       ?account4userAllowDelete@@YGEPAUACCOUNT4USER@@PAUDATA4St@@@Z 1001e950 f   d4secure.obj
 0001:0001d9a0       ?account4userAllowUpdate@@YGEPAUACCOUNT4USER@@PAUDATA4St@@@Z 1001e9a0 f   d4secure.obj
 0001:0001d9f0       ?account4userAllowIndex@@YGEPAUACCOUNT4USER@@PAUDATA4St@@@Z 1001e9f0 f   d4secure.obj
 0001:0001da40       ?account4userAllowCompress@@YGEPAUACCOUNT4USER@@PAUDATA4St@@@Z 1001ea40 f   d4secure.obj
 0001:0001da90       ?privilege4allowDo@@YGEPAUPRIVILEGE4@@PBD1PAUFIELD4St@@@Z 1001ea90 f   d4secure.obj
 0001:0001dc10       ?privilege4init@@YGHPAUCODE4St@@PAUPRIVILEGE4@@PBDH@Z 1001ec10 f   d4secure.obj
 0001:0001dfe0       ?account4init@@YGHPAUCODE4St@@PAUACCOUNT4@@PBDH@Z 1001efe0 f   d4secure.obj
 0001:0001e3c0       ?account4initUndo@@YGXPAUACCOUNT4@@@Z 1001f3c0 f   d4secure.obj
 0001:0001e3c0       ?privilege4initUndo@@YGXPAUPRIVILEGE4@@@Z 1001f3c0 f   d4secure.obj
 0001:0001e3e0       ?account4userAllowCreate@@YGEPAUACCOUNT4USER@@HH@Z 1001f3e0 f   d4secure.obj
 0001:0001e410       _collate4simpleMapping     1001f410 f   D4SEEK.obj
 0001:0001e420       _tfile4stok                1001f420 f   D4SEEK.obj
 0001:0001e510       ?tfile4ftok@@YAXPAUTAG4FILESt@@PADM@Z 1001f510 f   D4SEEK.obj
 0001:0001e570       _tfile4dtok                1001f570 f   D4SEEK.obj
 0001:0001e5d0       _tfile4stokExport@16       1001f5d0 f   D4SEEK.obj
 0001:0001e5f0       _tfile4dtokExport@16       1001f5f0 f   D4SEEK.obj
 0001:0001e610       _tfile4ftokExport@16       1001f610 f   D4SEEK.obj
 0001:0001e630       _d4seek@8                  1001f630 f   D4SEEK.obj
 0001:0001e680       _d4seekNext@8              1001f680 f   D4SEEK.obj
 0001:0001e6d0       _d4seekNextN@12            1001f6d0 f   D4SEEK.obj
 0001:0001f110       _d4seekNLow                10020110 f   D4SEEK.obj
 0001:0001f340       _d4seekN@12                10020340 f   D4SEEK.obj
 0001:0001f380       _d4seekDouble@12           10020380 f   D4SEEK.obj
 0001:0001f4e0       _d4seekLongLong@12         100204e0 f   D4SEEK.obj
 0001:0001f640       _d4seekNextLongLong@12     10020640 f   D4SEEK.obj
 0001:0001f8e0       _d4seekNextDouble@12       100208e0 f   D4SEEK.obj
 0001:0001fb70       _server4setServerPtr@4     10020b70 f   d4server.obj
 0001:0001fb80       _server4alloc@0            10020b80 f   d4server.obj
 0001:0001fba0       _server4free@4             10020ba0 f   d4server.obj
 0001:0001fbb0       _server4numClients@4       10020bb0 f   d4server.obj
 0001:0001fc50       _server4maxUsers@4         10020c50 f   d4server.obj
 0001:0001fc70       _server4numTransCommitted@4 10020c70 f   d4server.obj
 0001:0001fc90       _server4autoRecovery@4     10020c90 f   d4server.obj
 0001:0001fcd0       _server4numTransRolledBack@4 10020cd0 f   d4server.obj
 0001:0001fcf0       _server4numTables@4        10020cf0 f   d4server.obj
 0001:0001fd10       _server4lockCount@4        10020d10 f   d4server.obj
 0001:0001fd30       _server4portNumber@4       10020d30 f   d4server.obj
 0001:0001fd60       _server4name@4             10020d60 f   d4server.obj
 0001:0001fd80       ?server4worker@@YAXPAX@Z   10020d80 f   d4server.obj
 0001:00020090       ?server4accept@@YAXPAX@Z   10021090 f   d4server.obj
 0001:000201a0       _server4transInitServerId  100211a0 f   d4server.obj
 0001:000202c0       _server4init@20            100212c0 f   d4server.obj
 0001:00021d30       _server4disconnect@8       10022d30 f   d4server.obj
 0001:00021de0       _server4initUndo@4         10022de0 f   d4server.obj
 0001:00022230       _server4open               10023230 f   d4server.obj
 0001:000223a0       _server4quit@8             100233a0 f   d4server.obj
 0001:000223d0       _server4processMessage@8   100233d0 f   d4server.obj
 0001:00023790       _server4closeAll           10024790 f   d4server.obj
 0001:00023880       _server4info               10024880 f   d4server.obj
 0001:00023ab0       _error4hook@24             10024ab0 f   d4server.obj
 0001:00023df0       _server4setDoExit@8        10024df0 f   d4server.obj
 0001:00023e20       _server4getDoExit@4        10024e20 f   d4server.obj
 0001:00023e30       _server4waitOnQuitOrExit@4 10024e30 f   d4server.obj
 0001:00023ea0       _server4maxSockets@4       10024ea0 f   d4server.obj
 0001:00023eb0       _server4keepOpen@8         10024eb0 f   d4server.obj
 0001:00023ed0       _server4systemPath@4       10024ed0 f   d4server.obj
 0001:00023ee0       _c4CatalogClient@4         10024ee0 f   d4server.obj
 0001:00023ef0       _server4getCode4@4         10024ef0 f   d4server.obj
 0001:00023f00       _server4setPreprocess@8    10024f00 f   d4server.obj
 0001:00023f20       _server4clientGetServer@4  10024f20 f   d4server.obj
 0001:00023f30       _server4clientGetConnect@4 10024f30 f   d4server.obj
 0001:00023f40       _D4create                  10024f40 f   d4servex.obj
 0001:00024100       _D4createOpen@48           10025100 f   d4servex.obj
 0001:000241c0       _D4compress                100251c0 f   d4servex.obj
 0001:000242f0       _D4remove                  100252f0 f   d4servex.obj
 0001:00024380       _D4recCount                10025380 f   d4servex.obj
 0001:000243d0       _D4close                   100253d0 f   d4servex.obj
 0001:000243e0       _D4bottom                  100253e0 f   d4servex.obj
 0001:00024430       _D4position                10025430 f   d4servex.obj
 0001:00024480       _D4positionSet             10025480 f   d4servex.obj
 0001:000244d0       _D4reindex                 100254d0 f   d4servex.obj
 0001:00024530       _D4pack                    10025530 f   d4servex.obj
 0001:00024590       _D4top                     10025590 f   d4servex.obj
 0001:000245e0       _D4memoCompress            100255e0 f   d4servex.obj
 0001:00024610       _D4zap                     10025610 f   d4servex.obj
 0001:00024670       _D4open@40                 10025670 f   d4servex.obj
 0001:000247c0       _D4seekN                   100257c0 f   d4servex.obj
 0001:00024840       _D4seekDouble              10025840 f   d4servex.obj
 0001:000248c0       _D4seekLongLong            100258c0 f   d4servex.obj
 0001:00024940       _D4tagSync                 10025940 f   d4servex.obj
 0001:00024990       _D4skip                    10025990 f   d4servex.obj
 0001:00024b00       _D4unlock                  10025b00 f   d4servex.obj
 0001:00024b20       _I4reindex                 10025b20 f   d4servex.obj
 0001:00024b60       _I4tagAdd@8                10025b60 f   d4servex.obj
 0001:00024ba0       _D4check                   10025ba0 f   d4servex.obj
 0001:00024bd0       _D4write                   10025bd0 f   d4servex.obj
 0001:00024c70       _D4append                  10025c70 f   d4servex.obj
 0001:00024cb0       _Server4clientTranAddUser  10025cb0 f   d4servex.obj
 0001:00024d20       _Client4unlock             10025d20 f   d4servex.obj
 0001:00024d80       _code4findFirstConnection  10025d80 f   d4serv2.obj
 0001:00024df0       _server4clientAccept       10025df0 f   d4serv2.obj
 0001:00025640       _server4clientCancel       10026640 f   d4serv2.obj
 0001:00025850       _server4clientDataCopy     10026850 f   d4serv2.obj
 0001:000258c0       _server4clientDataModify   100268c0 f   d4serv2.obj
 0001:00025c40       _server4clientInit@12      10026c40 f   d4serv2.obj
 0001:00025cf0       _server4clientInitUndo     10026cf0 f   d4serv2.obj
 0001:00025f30       _server4clientPack         10026f30 f   d4serv2.obj
 0001:00026060       _server4clientPasswordSet  10027060 f   d4serv2.obj
 0001:000261c0       _server4clientTransactionCommitPhaseTwo 100271c0 f   d4serv2.obj
 0001:00026480       _server4clientTransactionRollback 10027480 f   d4serv2.obj
 0001:000264b0       _u4switch2@0               100274b0 f   d4serv2.obj
 0001:000264b0       _server4clientCatalogSet   100274b0 f   d4serv2.obj
 0001:000264b0       ?d4clearTables@@YAHPAUDATA4FILESt@@@Z 100274b0 f   d4serv2.obj
 0001:000264c0       _server4clientDateFormatSet 100274c0 f   d4serv2.obj
 0001:00026510       _server4clientConfigName   10027510 f   d4serv2.obj
 0001:00026560       _server4clientDataCompress 10027560 f   d4serv2.obj
 0001:000265e0       _server4clientDataFileCodePage 100275e0 f   d4serv2.obj
 0001:00026640       _server4clientDataFileName 10027640 f   d4serv2.obj
 0001:000266c0       _server4clientTagBottom    100276c0 f   d4serv2.obj
 0001:000267e0       _server4clientTagCacheSkip 100277e0 f   d4serv2.obj
 0001:00026ce0       _server4clientTagCount     10027ce0 f   d4serv2.obj
 0001:00026e20       _server4clientTagExprKey   10027e20 f   d4serv2.obj
 0001:00026f70       _server4clientTagGo        10027f70 f   d4serv2.obj
 0001:000270f0       _server4clientTagEof       100280f0 f   d4serv2.obj
 0001:000271d0       _server4clientTagSeek      100281d0 f   d4serv2.obj
 0001:00027310       _server4clientTagSkip      10028310 f   d4serv2.obj
 0001:00027560       _server4clientTagPosition  10028560 f   d4serv2.obj
 0001:00027770       _server4clientTagPositionSet 10028770 f   d4serv2.obj
 0001:00027890       _server4clientTagTop       10028890 f   d4serv2.obj
 0001:000279d0       _server4clientTagFileName  100289d0 f   d4serv2.obj
 0001:00027a70       _server4clientIndexFileName 10028a70 f   d4serv2.obj
 0001:00027b20       _server4clientServerOS     10028b20 f   d4serv2.obj
 0001:00027b80       _server4clientIndexFormat  10028b80 f   d4serv2.obj
 0001:00027bc0       _server4clientIndexInfo    10028bc0 f   d4serv2.obj
 0001:00027e10       _server4clientUniqueSet    10028e10 f   d4serv2.obj
 0001:00027f90       _server4clientMemoCompress 10028f90 f   d4serv2.obj
 0001:00028010       _server4clientMemoRead     10029010 f   d4serv2.obj
 0001:000281a0       _server4clientZap          100291a0 f   d4serv2.obj
 0001:00028320       _server4clientReccount     10029320 f   d4serv2.obj
 0001:000283c0       _server4clientRemove       100293c0 f   d4serv2.obj
 0001:00028450       _server4clientClose        10029450 f   d4serv2.obj
 0001:000284a0       _server4clientCloseIndex   100294a0 f   d4serv2.obj
 0001:00028580       _server4clientBottom       10029580 f   d4serv2.obj
 0001:000286e0       _server4clientCalcCreate   100296e0 f   d4serv2.obj
 0001:00028890       _server4clientCalcReset    10029890 f   d4serv2.obj
 0001:000288b0       _server4clientTop          100298b0 f   d4serv2.obj
 0001:00028ad0       _server4clientGo           10029ad0 f   d4serv2.obj
 0001:00028c30       _server4clientLockGroup    10029c30 f   d4serv2.obj
 0001:00028e90       _server4clientLock         10029e90 f   d4serv2.obj
 0001:00029160       _server4clientRemoveTag    1002a160 f   d4serv2.obj
 0001:000291e0       _server4clientAddTag       1002a1e0 f   d4serv2.obj
 0001:00029410       _server4clientSwapLogFile  1002a410 f   d4serv2.obj
 0001:00029780       _server4clientCreateIndex  1002a780 f   d4serv2.obj
 0001:00029a70       _server4clientCreate       1002aa70 f   d4serv2.obj
 0001:0002a190       _server4clientStatus       1002b190 f   d4serv2.obj
 0001:0002a280       _server4clientOpen         1002b280 f   d4serv2.obj
 0001:0002a550       _server4clientOpenIndex    1002b550 f   d4serv2.obj
 0001:0002a7b0       _server4clientSeek         1002b7b0 f   d4serv2.obj
 0001:0002aa00       _server4clientSeekDouble   1002ba00 f   d4serv2.obj
 0001:0002ac40       _server4clientSeekLongLong 1002bc40 f   d4serv2.obj
 0001:0002ae70       _server4clientMsgWriteBatch 1002be70 f   d4serv2.obj
 0001:0002b310       _server4clientMsgCompress  1002c310 f   d4serv2.obj
 0001:0002b380       _server4clientMsgRelateSkipMulti 1002c380 f   d4serv2.obj
 0001:0002b610       _server4clientMsgSkip      1002c610 f   d4serv2.obj
 0001:0002bda0       _server4clientSkip         1002cda0 f   d4serv2.obj
 0001:0002bf10       _server4clientTagSync      1002cf10 f   d4serv2.obj
 0001:0002c0b0       _server4clientUnlock@4     1002d0b0 f   d4serv2.obj
 0001:0002c1b0       _server4clientUnlockAppend 1002d1b0 f   d4serv2.obj
 0001:0002c210       _server4clientVersion      1002d210 f   d4serv2.obj
 0001:0002c290       _server4clientFlush        1002d290 f   d4serv2.obj
 0001:0002c310       _server4clientWrite        1002d310 f   d4serv2.obj
 0001:0002c670       _server4clientTransactionStart 1002d670 f   d4serv2.obj
 0001:0002c770       _server4clientTransactionCommitPhaseOne 1002d770 f   d4serv2.obj
 0001:0002c7a0       _server4clientTransactionCommitBothPhases 1002d7a0 f   d4serv2.obj
 0001:0002c7e0       _Server4clientTranCommit   1002d7e0 f   d4serv2.obj
 0001:0002c810       _Server4clientTranRollback 1002d810 f   d4serv2.obj
 0001:0002c840       _Server4clientTranStart    1002d840 f   d4serv2.obj
 0001:0002c8e0       _server4clientRelateInit   1002d8e0 f   d4serv2.obj
 0001:0002d290       _server4clientRelateTop    1002e290 f   d4serv2.obj
 0001:0002d430       _server4clientRelateBottom 1002e430 f   d4serv2.obj
 0001:0002d4c0       _server4clientRelateOpt    1002e4c0 f   d4serv2.obj
 0001:0002d550       _server4clientRelateSkip   1002e550 f   d4serv2.obj
 0001:0002d600       _server4clientRelateDo     1002e600 f   d4serv2.obj
 0001:0002d750       _server4clientRelateDoOne  1002e750 f   d4serv2.obj
 0001:0002d8a0       _server4clientRelateFree   1002e8a0 f   d4serv2.obj
 0001:0002d920       _server4clientCheck        1002e920 f   d4serv2.obj
 0001:0002d9e0       _server4clientDirectory    1002e9e0 f   d4serv2.obj
 0001:0002dce0       _server4clientCurrentDirectory 1002ece0 f   d4serv2.obj
 0001:0002dd60       _server4clientConnectNew   1002ed60 f   d4serv2.obj
 0001:0002dff0       _server4clientConnect      1002eff0 f   d4serv2.obj
 0001:0002e130       _server4clientPing         1002f130 f   d4serv2.obj
 0001:0002e210       _server4clientReindex      1002f210 f   d4serv2.obj
 0001:0002e350       _server4clientReindexIndex 1002f350 f   d4serv2.obj
 0001:0002e420       _server4clientPosition     1002f420 f   d4serv2.obj
 0001:0002e580       _server4clientPositionSet  1002f580 f   d4serv2.obj
 0001:0002e6e0       _server4clientAppend       1002f6e0 f   d4serv2.obj
 0001:0002e9a0       _server4clientConnectCloseFiles 1002f9a0 f   d4serv2.obj
 0001:0002e9d0       _server4clientConnectCut   1002f9d0 f   d4serv2.obj
 0001:0002ec70       _server4clientConnectCutAll 1002fc70 f   d4serv2.obj
 0001:0002ee10       _server4clientConnectAcceptNew 1002fe10 f   d4serv2.obj
 0001:0002ee60       _server4clientReceive      1002fe60 f   d4serv2.obj
 0001:0002f0f0       _server4clientCloseRecv    100300f0 f   d4serv2.obj
 0001:0002f130       _server4clientOpenRecv     10030130 f   d4serv2.obj
 0001:0002f2a0       _server4clientOpenSend     100302a0 f   d4serv2.obj
 0001:0002f370       _server4clientSend         10030370 f   d4serv2.obj
 0001:0002f580       _server4clientSendCheck    10030580 f   d4serv2.obj
 0001:0002f5f0       _server4clientSendCancel   100305f0 f   d4serv2.obj
 0001:0002f650       _server4clientTransactionInit 10030650 f   d4serv2.obj
 0001:0002f7a0       _server4clientTranEofHalt  100307a0 f   d4serv2.obj
 0001:0002f840       _server4clientTranEof      10030840 f   d4serv2.obj
 0001:0002f8b0       _server4clientLicenceCheck 100308b0 f   d4serv2.obj
 0001:0002f920       _server4clientRelateCount  10030920 f   d4serv2.obj
 0001:0002f9c0       _server4clientAdditionalFunction 100309c0 f   d4serv2.obj
 0001:0002fb90       _server4clientMsgPreprocessB 10030b90 f   d4serv2.obj
 0001:0002fbf0       _server4clientMsgPreprocessED 10030bf0 f   d4serv2.obj
 0001:0002fc40       _server4clientTables       10030c40 f   d4servol.obj
 0001:0002fca0       _d4skipRecno               10030ca0 f   d4skip.obj
 0001:0002fef0       _d4tagSync@8               10030ef0 f   d4skip.obj
 0001:0002ff50       _d4tagSyncDo               10030f50 f   d4skip.obj
 0001:00030370       _d4skip@8                  10031370 f   d4skip.obj
 0001:00030770       _d4tag@8                   10031770 f   D4TAG.obj
 0001:00030820       _dfile4tag                 10031820 f   D4TAG.obj
 0001:000308d0       _d4tagDefault@4            100318d0 f   D4TAG.obj
 0001:00030920       _d4tagNext@8               10031920 f   D4TAG.obj
 0001:000309d0       _dfile4tagNext             100319d0 f   D4TAG.obj
 0001:00030a40       _d4tagPrev@8               10031a40 f   D4TAG.obj
 0001:00030ad0       _d4tagSelect@8             10031ad0 f   D4TAG.obj
 0001:00030b30       _d4tagSelected@4           10031b30 f   D4TAG.obj
 0001:00030b60       _d4numTags@4               10031b60 f   D4TAG.obj
 0001:00030b90       _d4top@4                   10031b90 f   D4TOP.obj
 0001:00030d30       _d4goBof@4                 10031d30 f   D4TOP.obj
 0001:00030d90       _d4unlockLow@12            10031d90 f   d4unlock.obj
 0001:000310c0       _d4unlockAppendInternal@8  100320c0 f   d4unlock.obj
 0001:00031110       _d4unlockData@8            10032110 f   d4unlock.obj
 0001:00031180       _d4unlockFile@8            10032180 f   d4unlock.obj
 0001:00031220       _d4unlockRecord@8          10032220 f   d4unlock.obj
 0001:000312f0       _d4unlockRecords@8         100322f0 f   d4unlock.obj
 0001:000313e0       _code4unlockDo             100323e0 f   d4unlock.obj
 0001:000314b0       _code4unlock@4             100324b0 f   d4unlock.obj
 0001:00031500       _d4writeLow@16             10032500 f   D4WRITE.obj
 0001:00031c60       _d4writeData               10032c60 f   D4WRITE.obj
 0001:00031cf0       ?dfile4writeData@@YAHPAUDATA4FILESt@@JPBD@Z 10032cf0 f   D4WRITE.obj
 0001:00031d80       _t4keyFind                 10032d80 f   D4WRITE.obj
 0001:00031de0       _d4hasMemoExpr             10032de0 f   D4WRITE.obj
 0001:00031e50       _d4writeKeys               10032e50 f   D4WRITE.obj
 0001:000329a0       _D4writeDirect@12          100339a0 f   D4WRITE.obj
 0001:00032a40       _d4zap@12                  10033a40 f   d4zap.obj
 0001:00032b80       _d4zapData@12              10033b80 f   d4zap.obj
 0001:00032cb0       _dfile4zapData             10033cb0 f   d4zap.obj
 0001:00032f40       _d4lockTestIndexExport@4   10033f40 f   df4lock.obj
 0001:00032f60       _d4lockIndexExport@4       10033f60 f   df4lock.obj
 0001:00032f80       _dfile4lock                10033f80 f   df4lock.obj
 0001:00033080       _dfile4lockMemo            10034080 f   df4lock.obj
 0001:000330a0       _dfile4lockAppend          100340a0 f   df4lock.obj
 0001:00033160       _dfile4lockTestFileInternal 10034160 f   df4lock.obj
 0001:00033260       _dfile4lockFile            10034260 f   df4lock.obj
 0001:00033400       _dfile4lockIndex@8         10034400 f   df4lock.obj
 0001:00033510       _dfile4lockTest            10034510 f   df4lock.obj
 0001:000335f0       _dfile4lockTestIndex@8     100345f0 f   df4lock.obj
 0001:00033650       _dfile4lockTestAppend@12   10034650 f   df4lock.obj
 0001:000336c0       _dfile4lockTestFile@16     100346c0 f   df4lock.obj
 0001:000337f0       _dfile4memoUnlock          100347f0 f   df4unlok.obj
 0001:00033820       _dfile4unlockAppend        10034820 f   df4unlok.obj
 0001:00033940       _dfile4unlockFile          10034940 f   df4unlok.obj
 0001:00033a30       _d4unlockIndex@4           10034a30 f   df4unlok.obj
 0001:00033a50       _dfile4unlockIndex@8       10034a50 f   df4unlok.obj
 0001:00033ac0       _dfile4unlockRecordDo      10034ac0 f   df4unlok.obj
 0001:00033ba0       _expr4calcMassage@4        10034ba0 f   E4CALC.obj
 0001:00033bf0       _code4calcCreate@12        10034bf0 f   E4CALC.obj
 0001:00033c90       _expr4calcLookup@16        10034c90 f   E4CALC.obj
 0001:00033d90       _expr4calcResultPos@8      10034d90 f   E4CALC.obj
 0001:00033e10       _expr4calcNameChange@12    10034e10 f   E4CALC.obj
 0001:000340c0       _error4file@12             100350c0 f   e4error.obj
 0001:000341c0       _error4callback@8          100351c0 f   e4error.obj
 0001:000341e0       _error4logAppend           100351e0 f   e4error.obj
 0001:000345b0       _error4code@4              100355b0 f   e4error.obj
 0001:000345f0       _error4code2               100355f0 f   e4error.obj
 0001:00034620       _error4set@8               10035620 f   e4error.obj
 0001:00034650       _error4set2@8              10035650 f   e4error.obj
 0001:00034680       _error4out@24              10035680 f   e4error.obj
 0001:000349c0       _error4default@12          100359c0 f   e4error.obj
 0001:000349e0       _error4describeDefault@24  100359e0 f   e4error.obj
 0001:00034a10       _error4describeExecute@24  10035a10 f   e4error.obj
 0001:00034a40       _expr4context@8            10035a40 f   E4EXPR.obj
 0001:00034ab0       _expr4reset                10035ab0 f   E4EXPR.obj
 0001:00034ae0       _expr4start                10035ae0 f   E4EXPR.obj
 0001:00034b00       _expr4double2@8            10035b00 f   E4EXPR.obj
 0001:00034b30       _expr4double@4             10035b30 f   E4EXPR.obj
 0001:00034be0       _expr4execute@12           10035be0 f   E4EXPR.obj
 0001:00034cf0       _expr4key@12               10035cf0 f   E4EXPR.obj
 0001:00034d60       _expr4keyConvert           10035d60 f   E4EXPR.obj
 0001:00035300       _collate4convertCharToKey@24 10036300 f   E4EXPR.obj
 0001:00035380       _c4getAutoRecover@4        10036380 f   E4EXPR.obj
 0001:00035380       ?expr4currency@@YGHPBUe4exprSt@@@Z 10036380 f   E4EXPR.obj
 0001:00035380       _code4ping@4               10036380 f   E4EXPR.obj
 0001:00035380       _code4serverOS@4           10036380 f   E4EXPR.obj
 0001:00035390       _expr4nullLow@8            10036390 f   E4EXPR.obj
 0001:00035400       _expr4keyLenFromType@12    10036400 f   E4EXPR.obj
 0001:00035490       _expr4keyLen@4             10036490 f   E4EXPR.obj
 0001:00035510       _expr4source@4             10036510 f   E4EXPR.obj
 0001:00035530       _expr4str@4                10036530 f   E4EXPR.obj
 0001:00035590       _expr4true@4               10036590 f   E4EXPR.obj
 0001:000355f0       _expr4vary@8               100365f0 f   E4EXPR.obj
 0001:000356d0       _e4functions@0             100366d0 f   e4functi.obj
 0001:000356e0       _expr4functions@4          100366e0 f   e4functi.obj
 0001:000356f0       ?e4add@@YAXXZ              100366f0 f   e4functi.obj
 0001:00035780       ?e4addFloat@@YAXXZ         10036780 f   e4functi.obj
 0001:00035800       ?e4addDate@@YAXXZ          10036800 f   e4functi.obj
 0001:00035880       ?e4and@@YAXXZ              10036880 f   e4functi.obj
 0001:000358f0       ?e4concatSpecial@@YAXD@Z   100368f0 f   e4functi.obj
 0001:00035a00       ?e4concatTrim@@YAXXZ       10036a00 f   e4functi.obj
 0001:00035a10       ?e4wstrLenCon@@YAXXZ       10036a10 f   e4functi.obj
 0001:00035a50       ?e4concatTwo@@YAXXZ        10036a50 f   e4functi.obj
 0001:00035a60       ?e4contain@@YAXXZ          10036a60 f   e4functi.obj
 0001:00035b20       ?e4copyConstant@@YAXXZ     10036b20 f   e4functi.obj
 0001:00035b80       ?e4copyToFloat@@YAXXZ      10036b80 f   e4functi.obj
 0001:00035bc0       ?e4fieldCopy@@YAXXZ        10036bc0 f   e4functi.obj
 0001:00035c70       ?e4copyParm@@YAXXZ         10036c70 f   e4functi.obj
 0001:00035d00       ?e4ctod@@YAXXZ             10036d00 f   e4functi.obj
 0001:00035d70       ?e4date@@YAXXZ             10036d70 f   e4functi.obj
 0001:00035dd0       ?e4day@@YAXXZ              10036dd0 f   e4functi.obj
 0001:00035e20       ?e4dayDoub@@YAXXZ          10036e20 f   e4functi.obj
 0001:00035e80       ?e4del@@YAXXZ              10036e80 f   e4functi.obj
 0001:00035ec0       ?e4deleted@@YAXXZ          10036ec0 f   e4functi.obj
 0001:00035f10       ?e4divide@@YAXXZ           10036f10 f   e4functi.obj
 0001:00035fa0       ?e4divideFlt@@YAXXZ        10036fa0 f   e4functi.obj
 0001:00036060       ?e4ttoc@@YAXXZ             10037060 f   e4functi.obj
 0001:000360b0       ?e4ttocDateTime@@YAXXZ     100370b0 f   e4functi.obj
 0001:00036170       ?e4ttocDoub@@YAXXZ         10037170 f   e4functi.obj
 0001:00036180       ?e4dtoc@@YAXXZ             10037180 f   e4functi.obj
 0001:00036200       ?e4dateTime@@YAXXZ         10037200 f   e4functi.obj
 0001:00036260       ?e4dtocDoub@@YAXXZ         10037260 f   e4functi.obj
 0001:00036270       ?e4space@@YAXXZ            10037270 f   e4functi.obj
 0001:000362b0       ?e4chr@@YAXXZ              100372b0 f   e4functi.obj
 0001:000362d0       ?e4dtosDoub@@YAXXZ         100372d0 f   e4functi.obj
 0001:00036320       ?e4equalCur@@YAXXZ         10037320 f   e4functi.obj
 0001:000363a0       ?e4equalDtTime@@YAXXZ      100373a0 f   e4functi.obj
 0001:00036420       ?e4equal@@YAXXZ            10037420 f   e4functi.obj
 0001:000364a0       ?e4false@@YAXXZ            100374a0 f   e4functi.obj
 0001:000364d0       ?e4fieldDateD@@YAXXZ       100374d0 f   e4functi.obj
 0001:00036560       ?e4fieldLog@@YAXXZ         10037560 f   e4functi.obj
 0001:000365f0       ?e4fieldMemo@@YAXXZ        100375f0 f   e4functi.obj
 0001:00036720       ?e4fieldCurD@@YAXXZ        10037720 f   e4functi.obj
 0001:000367f0       ?e4fieldIntF@@YAXXZ        100377f0 f   e4functi.obj
 0001:00036870       ?e4fieldIntD@@YAXXZ        10037870 f   e4functi.obj
 0001:00036900       ?e4fieldNumD@@YAXXZ        10037900 f   e4functi.obj
 0001:000369a0       ?e4fieldDoubD@@YAXXZ       100379a0 f   e4functi.obj
 0001:00036a20       ?e4greaterCur@@YAXXZ       10037a20 f   e4functi.obj
 0001:00036ad0       ?e4greaterDtTime@@YAXXZ    10037ad0 f   e4functi.obj
 0001:00036b80       ?e4greater@@YAXXZ          10037b80 f   e4functi.obj
 0001:00036c20       ?e4greaterDoub@@YAXXZ      10037c20 f   e4functi.obj
 0001:00036c80       ?e4greaterFloat@@YAXXZ     10037c80 f   e4functi.obj
 0001:00036ce0       ?e4greaterEqCur@@YAXXZ     10037ce0 f   e4functi.obj
 0001:00036d40       ?e4greaterEqDtTime@@YAXXZ  10037d40 f   e4functi.obj
 0001:00036da0       ?e4greaterEq@@YAXXZ        10037da0 f   e4functi.obj
 0001:00036e00       ?e4greaterEqDoub@@YAXXZ    10037e00 f   e4functi.obj
 0001:00036e90       ?e4greaterEqFloat@@YAXXZ   10037e90 f   e4functi.obj
 0001:00036f20       ?e4iif@@YAXXZ              10037f20 f   e4functi.obj
 0001:00036fa0       ?e4iifStr@@YAXXZ           10037fa0 f   e4functi.obj
 0001:00037050       ?e4lessCur@@YAXXZ          10038050 f   e4functi.obj
 0001:00037100       ?e4lessDtTime@@YAXXZ       10038100 f   e4functi.obj
 0001:000371b0       ?e4keyEqual@@YAXXZ         100381b0 f   e4functi.obj
 0001:00037300       ?e4less@@YAXXZ             10038300 f   e4functi.obj
 0001:000373a0       ?e4lessDoub@@YAXXZ         100383a0 f   e4functi.obj
 0001:00037400       ?e4lessFloat@@YAXXZ        10038400 f   e4functi.obj
 0001:00037460       ?e4lessEqCur@@YAXXZ        10038460 f   e4functi.obj
 0001:000374c0       ?e4lessEqDtTime@@YAXXZ     100384c0 f   e4functi.obj
 0001:00037520       ?e4lessEq@@YAXXZ           10038520 f   e4functi.obj
 0001:00037580       ?e4lessEqDoub@@YAXXZ       10038580 f   e4functi.obj
 0001:00037610       ?e4lessEqFloat@@YAXXZ      10038610 f   e4functi.obj
 0001:000376a0       ?e4ltrim@@YAXXZ            100386a0 f   e4functi.obj
 0001:00037730       ?e4alltrim@@YAXXZ          10038730 f   e4functi.obj
 0001:00037750       ?e4month@@YAXXZ            10038750 f   e4functi.obj
 0001:00037790       ?e4monthDoub@@YAXXZ        10038790 f   e4functi.obj
 0001:000377f0       ?e4multiply@@YAXXZ         100387f0 f   e4functi.obj
 0001:00037880       ?e4multiplyFlt@@YAXXZ      10038880 f   e4functi.obj
 0001:00037900       ?e4not@@YAXXZ              10038900 f   e4functi.obj
 0001:00037930       ?e4notEqualCur@@YAXXZ      10038930 f   e4functi.obj
 0001:000379b0       ?e4notEqualDtTime@@YAXXZ   100389b0 f   e4functi.obj
 0001:00037a30       ?e4notEqual@@YAXXZ         10038a30 f   e4functi.obj
 0001:00037ab0       ?e4or@@YAXXZ               10038ab0 f   e4functi.obj
 0001:00037b20       ?e4fieldAdd@@YAXXZ         10038b20 f   e4functi.obj
 0001:00037b70       ?e4parmRemove@@YAXXZ       10038b70 f   e4functi.obj
 0001:00037bc0       ?e4padLeft@@YAXXZ          10038bc0 f   e4functi.obj
 0001:00037c30       ?e4padRight@@YAXXZ         10038c30 f   e4functi.obj
 0001:00037cb0       ?e4power@@YAXXZ            10038cb0 f   e4functi.obj
 0001:00037cf0       ?e4recCount@@YAXXZ         10038cf0 f   e4functi.obj
 0001:00037d90       ?e4recno@@YAXXZ            10038d90 f   e4functi.obj
 0001:00037de0       ?e4stod@@YAXXZ             10038de0 f   e4functi.obj
 0001:00037e20       ?e4strZero@@YAXXZ          10038e20 f   e4functi.obj
 0001:00037ea0       ?e4str@@YAXXZ              10038ea0 f   e4functi.obj
 0001:00037ef0       ?e4wideToStr@@YAXXZ        10038ef0 f   e4functi.obj
 0001:00037f50       ?e4sub@@YAXXZ              10038f50 f   e4functi.obj
 0001:00037fe0       ?e4subFloat@@YAXXZ         10038fe0 f   e4functi.obj
 0001:00038060       ?e4subDate@@YAXXZ          10039060 f   e4functi.obj
 0001:00038120       ?e4substr@@YAXXZ           10039120 f   e4functi.obj
 0001:000381c0       ?e4time@@YAXXZ             100391c0 f   e4functi.obj
 0001:000381f0       ?e4trim@@YAXXZ             100391f0 f   e4functi.obj
 0001:00038230       ?expr4trueFunction@@YAXXZ  10039230 f   e4functi.obj
 0001:00038260       ?e4upper@@YAXXZ            10039260 f   e4functi.obj
 0001:000382d0       ?e4l2bin@@YAXXZ            100392d0 f   e4functi.obj
 0001:00038300       ?e4val@@YAXXZ              10039300 f   e4functi.obj
 0001:00038350       ?e4year@@YAXXZ             10039350 f   e4functi.obj
 0001:00038390       ?e4yearDoub@@YAXXZ         10039390 f   e4functi.obj
 0001:000383f0       ?e4ascend@@YAXXZ           100393f0 f   e4functi.obj
 0001:000386a0       ?e4descend@@YAXXZ          100396a0 f   e4functi.obj
 0001:000386e0       ?e4calcFunction@@YAXXZ     100396e0 f   e4functi.obj
 0001:00038760       ?e4empty@@YAXXZ            10039760 f   e4functi.obj
 0001:000387d0       ?e4emptyNum@@YAXXZ         100397d0 f   e4functi.obj
 0001:00038810       ?e4emptyDtTm@@YAXXZ        10039810 f   e4functi.obj
 0001:00038810       ?e4emptyLog@@YAXXZ         10039810 f   e4functi.obj
 0001:00038850       _tfile4versionCheck@12     10039850 f   e4not_s.obj
 0001:00038870       _e4lookup@16               10039870 f   e4parse.obj
 0001:00038890       _e4addConstant             10039890 f   e4parse.obj
 0001:000388d0       _e4functionAdd             100398d0 f   e4parse.obj
 0001:00038960       _expr4parseLow@12          10039960 f   e4parse.obj
 0001:00039a00       _e4getOperator             1003aa00 f   e4parse.obj
 0001:00039b40       _expr4parseExpr            1003ab40 f   e4parse.obj
 0001:00039cd0       _expr4parseFunction        1003acd0 f   e4parse.obj
 0001:0003a6b0       _expr4parseValue           1003b6b0 f   e4parse.obj
 0001:0003b240       _e4text                    1003c240 f   e4string.obj
 0001:0003b280       _error4lastDescription@4   1003c280 f   e4string.obj
 0001:0003b290       _error4text@8              1003c290 f   e4string.obj
 0001:0003b330       _error4number2@4           1003c330 f   e4string.obj
 0001:0003b3c0       _code4freeEvent            1003c3c0 f   E4EVENT.obj
 0001:0003b3e0       _code4getEvent             1003c3e0 f   E4EVENT.obj
 0001:0003b420       _code4clearEvents          1003c420 f   E4EVENT.obj
 0001:0003b470       _event4init                1003c470 f   E4EVENT.obj
 0001:0003b4a0       _event4initUndo            1003c4a0 f   E4EVENT.obj
 0001:0003b4c0       _event4reset               1003c4c0 f   E4EVENT.obj
 0001:0003b4e0       _event4wait                1003c4e0 f   E4EVENT.obj
 0001:0003b520       _f4assignField@8           1003c520 f   f4ass_f.obj
 0001:0003b770       _f4assignChar@8            1003c770 f   F4CHAR.obj
 0001:0003b7e0       _f4char@4                  1003c7e0 f   F4CHAR.obj
 0001:0003b870       _file4close@4              1003c870 f   f4close.obj
 0001:0003baa0       _file4exists@4             1003caa0 f   f4create.obj
 0001:0003bac0       _file4createInternal@20    1003cac0 f   f4create.obj
 0001:0003bdb0       _file4create@16            1003cdb0 f   f4create.obj
 0001:0003bdd0       _f4assignFloat@8           1003cdd0 f   F4DOUBLE.obj
 0001:0003be20       _f4assignDouble@12         1003ce20 f   F4DOUBLE.obj
 0001:0003bfc0       _f4float@4                 1003cfc0 f   F4DOUBLE.obj
 0001:0003c020       _f4double@4                1003d020 f   F4DOUBLE.obj
 0001:0003c170       _f4double2@8               1003d170 f   F4DOUBLE.obj
 0001:0003c1a0       _f4assignPtr@4             1003d1a0 f   F4FIELD.obj
 0001:0003c1f0       _f4blank@4                 1003d1f0 f   F4FIELD.obj
 0001:0003c370       _f4data@4                  1003d370 f   F4FIELD.obj
 0001:0003c3a0       _f4decimals@4              1003d3a0 f   F4FIELD.obj
 0001:0003c3d0       _f4len@4                   1003d3d0 f   F4FIELD.obj
 0001:0003c400       _f4name@4                  1003d400 f   F4FIELD.obj
 0001:0003c430       _f4number@4                1003d430 f   F4FIELD.obj
 0001:0003c470       _f4type@4                  1003d470 f   F4FIELD.obj
 0001:0003c4c0       _f4typeInternal            1003d4c0 f   F4FIELD.obj
 0001:0003c500       _date4timeCompare@8        1003d500 f   F4FIELD.obj
 0001:0003c550       _currency4compare@8        1003d550 f   F4FIELD.obj
 0001:0003c5e0       _currency4add@12           1003d5e0 f   F4FIELD.obj
 0001:0003c610       _currency4subtract@12      1003d610 f   F4FIELD.obj
 0001:0003c640       _currency4multiplyShort@12 1003d640 f   F4FIELD.obj
 0001:0003c7b0       _currency4divideShort@12   1003d7b0 f   F4FIELD.obj
 0001:0003c8c0       _c4currencyToA@20          1003d8c0 f   F4FIELD.obj
 0001:0003ca30       _c4atoCurrency@12          1003da30 f   F4FIELD.obj
 0001:0003cd20       _f4assignCurrency@8        1003dd20 f   F4FIELD.obj
 0001:0003cda0       _f4currency@8              1003dda0 f   F4FIELD.obj
 0001:0003ce60       _f4assignNotNull@4         1003de60 f   F4FIELD.obj
 0001:0003cef0       _f4assignNull@4            1003def0 f   F4FIELD.obj
 0001:0003cfc0       _f4null@4                  1003dfc0 f   F4FIELD.obj
 0001:0003d020       _f4dateTime@4              1003e020 f   F4FIELD.obj
 0001:0003d200       _f4assignDateTime@8        1003e200 f   F4FIELD.obj
 0001:0003d2a0       _f4accessMode@4            1003e2a0 f   F4FIELD.obj
 0001:0003d2d0       ?critical4sectionInit@@YAXPAUCRITICAL4SECTION@@@Z 1003e2d0 f   f4file.obj
 0001:0003d2f0       ?critical4sectionInitUndo@@YAXPAUCRITICAL4SECTION@@@Z 1003e2f0 f   f4file.obj
 0001:0003d310       ?critical4sectionEnter@@YAXPAUCRITICAL4SECTION@@@Z 1003e310 f   f4file.obj
 0001:0003d340       ?critical4sectionLeave@@YAXPAUCRITICAL4SECTION@@@Z 1003e340 f   f4file.obj
 0001:0003d360       _u4filelength@4            1003e360 f   f4file.obj
 0001:0003d3a0       _compress4handlerOffsetGet 1003e3a0 f   f4file.obj
 0001:0003d500       _file4lenLow@4             1003e500 f   f4file.obj
 0001:0003d650       _file4lenLow2@4            1003e650 f   f4file.obj
 0001:0003d670       _file4compressSetLenDo     1003e670 f   f4file.obj
 0001:0003db00       _file4lenSet@8             1003eb00 f   f4file.obj
 0001:0003db20       _file4lenSetLow            1003eb20 f   f4file.obj
 0001:0003ded0       _file4lenSetLow2@8         1003eed0 f   f4file.obj
 0001:0003def0       _file4nameLow@4            1003eef0 f   f4file.obj
 0001:0003df00       _file4readOnBoundary       1003ef00 f   f4file.obj
 0001:0003e130       _file4readDecompressDo     1003f130 f   f4file.obj
 0001:0003e5a0       _file4readLow              1003f5a0 f   f4file.obj
 0001:0003e910       _file4read@16              1003f910 f   f4file.obj
 0001:0003e960       _file4readInternal         1003f960 f   f4file.obj
 0001:0003e9f0       _file4readAll@16           1003f9f0 f   f4file.obj
 0001:0003ea40       _file4readAllInternal      1003fa40 f   f4file.obj
 0001:0003eb00       _file4readError@20         1003fb00 f   f4file.obj
 0001:0003eb70       _file4replace@8            1003fb70 f   f4file.obj
 0001:0003ee20       _file4alloc@4              1003fe20 f   f4file.obj
 0001:0003ee50       _file4advanceRead@28       1003fe50 f   f4file.obj
 0001:0003ef60       _file4advanceCancel        1003ff60 f   f4file.obj
 0001:0003f050       _file4advanceReadMain      10040050 f   f4file.obj
 0001:0003f170       _file4advanceReadWriteOver 10040170 f   f4file.obj
 0001:0003f520       ?file4advanceReadBufCompletionRoutine@@YAXPAX@Z 10040520 f   f4file.obj
 0001:0003f560       _opt4advanceReadBuf        10040560 f   f4file.obj
 0001:0003f7f0       _file4compressInit         100407f0 f   f4file.obj
 0001:0003f9b0       _compress4infoFree         100409b0 f   f4file.obj
 0001:0003fa20       _file4compressInitUndo     10040a20 f   f4file.obj
 0001:0003fa90       _file4compressInitArrayOffsets 10040a90 f   f4file.obj
 0001:0003fc20       ?file4seqReadCompletionRoutine@@YAXPAX@Z 10040c20 f   F4FILESE.obj
 0001:0003fc50       ?file4seqReadAdvance@@YGIPAUFILE4SEQ_READ@@PAXI@Z 10040c50 f   F4FILESE.obj
 0001:0003fdf0       _file4seqReadInitUndo      10040df0 f   F4FILESE.obj
 0001:0003fe60       _file4seqRead@12           10040e60 f   F4FILESE.obj
 0001:0003fff0       _file4seqReadAll@12        10040ff0 f   F4FILESE.obj
 0001:00040070       _file4seqReadInit@20       10041070 f   F4FILESE.obj
 0001:000400a0       _file4seqReadInitDo@28     100410a0 f   F4FILESE.obj
 0001:000401b0       _file4seqReadAlloc@4       100411b0 f   F4FILESE.obj
 0001:000401e0       _file4seqWriteDelay@4      100411e0 f   F4FILESE.obj
 0001:00040370       _file4seqWriteFlush@4      10041370 f   F4FILESE.obj
 0001:00040410       _file4seqWrite@12          10041410 f   F4FILESE.obj
 0001:00040530       _file4seqWriteInit@20      10041530 f   F4FILESE.obj
 0001:00040580       _file4seqWriteInitLow      10041580 f   F4FILESE.obj
 0001:00040620       _file4seqWriteRepeat@12    10041620 f   F4FILESE.obj
 0001:000406d0       _file4seqWriteAlloc@4      100416d0 f   F4FILESE.obj
 0001:00040700       _file4free@4               10041700 f   F4FILESE.obj
 0001:00040700       _file4seqWriteFree@4       10041700 f   F4FILESE.obj
 0001:00040700       _file4seqReadFree@4        10041700 f   F4FILESE.obj
 0001:00040700       _sort4free2@4              10041700 f   F4FILESE.obj
 0001:00040710       ??0Find4file@@QAE@PBD00@Z  10041710 f   f4find.obj
 0001:00040870       ?getNext@Find4file@@QAEPBDPADI@Z 10041870 f   f4find.obj
 0001:000408f0       ?close@Find4file@@AAEXXZ   100418f0 f   f4find.obj
 0001:00040920       _f4flagInit@16             10041920 f   F4FLAG.obj
 0001:00040980       _f4flagReset@8             10041980 f   F4FLAG.obj
 0001:000409d0       _f4flagSet@8               100419d0 f   F4FLAG.obj
 0001:00040a10       _f4flagSetRange@12         10041a10 f   F4FLAG.obj
 0001:00040a50       _f4flagIsSet@8             10041a50 f   F4FLAG.obj
 0001:00040aa0       _f4flagIsAllSet@12         10041aa0 f   F4FLAG.obj
 0001:00040ae0       _f4flagIsAnySet@12         10041ae0 f   F4FLAG.obj
 0001:00040b10       _f4flagAnd@8               10041b10 f   F4FLAG.obj
 0001:00040c30       _f4flagOr@8                10041c30 f   F4FLAG.obj
 0001:00040d00       _f4flagFlipReturns@4       10041d00 f   F4FLAG.obj
 0001:00040d20       _f4flagSetAll@4            10041d20 f   F4FLAG.obj
 0001:00040d50       _f4flagCount               10041d50 f   F4FLAG.obj
 0001:00040da0       _opt4fileFlush             10041da0 f   F4FLUSH.obj
 0001:00040ef0       _file4flush@4              10041ef0 f   F4FLUSH.obj
 0001:00040fe0       _file4refresh@4            10041fe0 f   F4FLUSH.obj
 0001:00041030       _d4fieldInfo@4             10042030 f   f4info.obj
 0001:00041170       _f4assignInt@8             10042170 f   F4INT.obj
 0001:000412c0       _f4int@4                   100422c0 f   F4INT.obj
 0001:00041440       _dfile4registerLocked      10042440 f   f4lock.obj
 0001:00041590       _code4lockNetworkId@4      10042590 f   f4lock.obj
 0001:000415b0       _code4lockUserId@4         100425b0 f   f4lock.obj
 0001:000415d0       _code4lockFileName@4       100425d0 f   f4lock.obj
 0001:000415f0       _code4lockItem@4           100425f0 f   f4lock.obj
 0001:00041610       _file4lockInternal@20      10042610 f   f4lock.obj
 0001:00041760       _file4unlockInternal@20    10042760 f   f4lock.obj
 0001:00041820       _f4assignLong@8            10042820 f   F4LONG.obj
 0001:000419b0       _f4assignLongLong@12       100429b0 f   F4LONG.obj
 0001:00041a60       _f4long@4                  10042a60 f   F4LONG.obj
 0001:00041c10       _f4longLong@4              10042c10 f   F4LONG.obj
 0001:00041c60       _f4memoAssignField@8       10042c60 f   f4memo.obj
 0001:00041cb0       _f4memoAssign@8            10042cb0 f   f4memo.obj
 0001:00041d20       _f4memoSaveOld             10042d20 f   f4memo.obj
 0001:00041df0       _f4memoAssignN@12          10042df0 f   f4memo.obj
 0001:00041e90       _f4memoFree@4              10042e90 f   f4memo.obj
 0001:00041f00       _f4memoLen@4               10042f00 f   f4memo.obj
 0001:00041fa0       _f4memoNcpy@12             10042fa0 f   f4memo.obj
 0001:00042050       _f4memoPtr@4               10043050 f   f4memo.obj
 0001:000420d0       _f4memoResetExport@4       100430d0 f   f4memo.obj
 0001:000420e0       _f4memoRead                100430e0 f   f4memo.obj
 0001:00042180       _f4memoReadLow             10043180 f   f4memo.obj
 0001:00042230       _f4memoReset               10043230 f   f4memo.obj
 0001:00042260       _d4memoResetExport@4       10043260 f   f4memo.obj
 0001:000422b0       _f4memoSetLen@8            100432b0 f   f4memo.obj
 0001:000423b0       _f4memoStr@4               100433b0 f   f4memo.obj
 0001:000423f0       _f4memoUpdate              100433f0 f   f4memo.obj
 0001:00042430       _f4memoWrite               10043430 f   f4memo.obj
 0001:000424e0       _f4memoReadPart@16         100434e0 f   f4memo.obj
 0001:00042610       _f4memoWriteFinish@4       10043610 f   f4memo.obj
 0001:00042630       _f4memoWritePart@20        10043630 f   f4memo.obj
 0001:000427b0       _f4memoAssignFile@8        100437b0 f   f4memo.obj
 0001:00042a30       _f4memoFile@8              10043a30 f   f4memo.obj
 0001:00042be0       _f4memoGetOffset@4         10043be0 f   f4memo.obj
 0001:00042c00       _f4isMemo@4                10043c00 f   f4memo.obj
 0001:00042c30       _f4memoLenMax@4            10043c30 f   f4memo.obj
 0001:00042c70       _u4openFiles               10043c70 f   f4open.obj
 0001:00042c80       _file4openInternal@20      10043c80 f   f4open.obj
 0001:000430c0       _file4open@16              100440c0 f   f4open.obj
 0001:000430e0       _file4openTest@4           100440e0 f   f4open.obj
 0001:000430f0       _file4optimizeLow@20       100440f0 f   f4opt.obj
 0001:000432e0       _file4optimizeWrite@8      100442e0 f   f4opt.obj
 0001:000433b0       _file4setWriteOpt          100443b0 f   f4opt.obj
 0001:000433e0       _f4assign@8                100443e0 f   F4STR.obj
 0001:000434c0       _f4assignN@12              100444c0 f   F4STR.obj
 0001:00043540       _f4ncpy@12                 10044540 f   F4STR.obj
 0001:000435b0       _f4str@4                   100445b0 f   F4STR.obj
 0001:00043650       _file4tempLow              10044650 f   F4TEMP.obj
 0001:00043bb0       _file4setTemporary         10044bb0 f   F4TEMP.obj
 0001:00043bf0       _f4true@4                  10044bf0 f   F4TRUE.obj
 0001:00043ca0       _file4writeLowDoInternal   10044ca0 f   f4write.obj
 0001:00043d90       _file4compressLock         10044d90 f   f4write.obj
 0001:00043e50       _file4compressUnlock       10044e50 f   f4write.obj
 0001:00043e90       _file4writeLow             10044e90 f   f4write.obj
 0001:00044dd0       _file4writeOpt             10045dd0 f   f4write.obj
 0001:00044ee0       _file4write@16             10045ee0 f   f4write.obj
 0001:00044f10       _file4writeInternal        10045f10 f   f4write.obj
 0001:00044ff0       _file4writeDelay           10045ff0 f   f4write.obj
 0001:000452f0       _file4writeDelayFlush      100462f0 f   f4write.obj
 0001:00045460       _file4writeDelayMain       10046460 f   f4write.obj
 0001:00045590       _file4copy                 10046590 f   f4write.obj
 0001:00045690       _f4assignUnicode@8         10046690 f   F4WSTR.obj
 0001:000456b0       _f4assignWideString@8      100466b0 f   F4WSTR.obj
 0001:000457a0       _f4memoAssignUnicode@8     100467a0 f   F4WSTR.obj
 0001:00045820       ??2Hash4lock@@SAPAXI@Z     10046820 f   hash4.obj
 0001:00045830       ??3Hash4lock@@SAXPAX@Z     10046830 f   hash4.obj
 0001:00045840       ??0Hash4lock@@QAE@XZ       10046840 f   hash4.obj
 0001:00045860       ??1Hash4lock@@QAE@XZ       10046860 f   hash4.obj
 0001:00045880       ?expand@Hash4lock@@QAEXXZ  10046880 f   hash4.obj
 0001:000458f0       ?remove@Hash4lock@@QAEXPAVLock4@@@Z 100468f0 f   hash4.obj
 0001:00045930       ?findAnyLock@Hash4lock@@QAEHPAUDATA4St@@W4Lock4type@@@Z 10046930 f   hash4.obj
 0001:000459b0       ?find@Hash4lock@@QAEHPAUDATA4St@@JW4Lock4type@@@Z 100469b0 f   hash4.obj
 0001:00045ae0       _t4uniqueModify@8          10046ae0 f   i4add.obj
 0001:00045bd0       _i4tagAdd@8                10046bd0 f   i4add.obj
 0001:00046850       _i4indexRemove             10047850 f   i4add.obj
 0001:00046900       _d4indexesRemove@4         10047900 f   i4add.obj
 0001:00046930       _i4tagRemove@4             10047930 f   i4add.obj
 0001:00046df0       _tfile4add                 10047df0 f   i4addtag.obj
 0001:00046e40       _tfile4addDo               10047e40 f   i4addtag.obj
 0001:00047640       _t4addCalc                 10048640 f   i4addtag.obj
 0001:00047760       _t4check                   10048760 f   i4check.obj
 0001:00048240       _i4check                   10049240 f   i4check.obj
 0001:00048860       _d4check@4                 10049860 f   i4check.obj
 0001:00048920       _c4longlongToA             10049920 f   i4conv.obj
 0001:000489c0       _e4applyAscend             100499c0 f   i4conv.obj
 0001:00048be0       _time4long@12              10049be0 f   i4conv.obj
 0001:00048c60       ?t4dblToCur@@YAXPADN@Z     10049c60 f   i4conv.obj
 0001:00048cb0       _c4descend                 10049cb0 f   i4conv.obj
 0001:00048d20       ?t4strToCur@@YAXPAUCOLLATE4@@PADPBDHPAH@Z 10049d20 f   i4conv.obj
 0001:00049080       ?t4convertSubSortCompressUnicode@@YAXPAUCOLLATE4@@PADPBDHPAH@Z 1004a080 f   i4conv.obj
 0001:000492d0       ?t4unicodeToMachine@@YAXPAUCOLLATE4@@PADPBDHPAH@Z 1004a2d0 f   i4conv.obj
 0001:00049310       ?t4strToDateTime@@YAXPAUCOLLATE4@@PADPBDHPAH@Z 1004a310 f   i4conv.obj
 0001:00049380       ?t4strToDateTimeMilli@@YAXPAUCOLLATE4@@PADPBDHPAH@Z 1004a380 f   i4conv.obj
 0001:000493f0       ?t4strToInt@@YAXPAUCOLLATE4@@PADPBDHPAH@Z 1004a3f0 f   i4conv.obj
 0001:00049420       ?t4strToFloat@@YAXPAUCOLLATE4@@PADPBDHPAH@Z 1004a420 f   i4conv.obj
 0001:00049450       ?t4strToUnsignedInt@@YAXPAUCOLLATE4@@PADPBDHPAH@Z 1004a450 f   i4conv.obj
 0001:00049480       ?t4dblToInt@@YAXPADN@Z     1004a480 f   i4conv.obj
 0001:000494a0       ?t4dblToFloat@@YAXPADN@Z   1004a4a0 f   i4conv.obj
 0001:000494c0       ?t4dblToUnsignedInt@@YAXPADN@Z 1004a4c0 f   i4conv.obj
 0001:00049500       ?t4strToTime@@YAXPAUCOLLATE4@@PADPBDHPAH@Z 1004a500 f   i4conv.obj
 0001:00049550       ?t4strToLongLong@@YAXPAUCOLLATE4@@PADPBDHPAH@Z 1004a550 f   i4conv.obj
 0001:00049580       ?t4dblToLongLong@@YAXPADN@Z 1004a580 f   i4conv.obj
 0001:000495a0       ?t4strToLog@@YAXPAUCOLLATE4@@PADPBDHPAH@Z 1004a5a0 f   i4conv.obj
 0001:00049640       ?t4intToFox@@YAXPADPBJ@Z   1004a640 f   i4conv.obj
 0001:00049670       ?t4unsignedIntToFox@@YAXPADPBK@Z 1004a670 f   i4conv.obj
 0001:00049690       ?t4i8ToFox@@YAXPADPB_J@Z   1004a690 f   i4conv.obj
 0001:000496c0       ?t4dtstrToFox@@YAXPAUCOLLATE4@@PADPBDHPAH@Z 1004a6c0 f   i4conv.obj
 0001:000496f0       ?t4dtstrToDbDate@@YAXPAUCOLLATE4@@PADPBDHPAH@Z 1004a6f0 f   i4conv.obj
 0001:00049750       ?t4dblToDbDate@@YAXPADN@Z  1004a750 f   i4conv.obj
 0001:00049840       ?t4strToFox@@YAXPAUCOLLATE4@@PADPBDHPAH@Z 1004a840 f   i4conv.obj
 0001:00049870       ?t4dbTimeToFox@@YAXPADPBUtagDBTIME@@@Z 1004a870 f   i4conv.obj
 0001:00049870       ?t4dbDateToFox@@YAXPADPBUtagDBDATE@@@Z 1004a870 f   i4conv.obj
 0001:000498a0       ?t4dbTimeStampToFox@@YAXPADPBUtagDBTIMESTAMP@@@Z 1004a8a0 f   i4conv.obj
 0001:00049910       ?t4strToDbTimeStamp@@YAXPAUCOLLATE4@@PADPBDHPAH@Z 1004a910 f   i4conv.obj
 0001:000499f0       ?t4curToFox@@YAXPADPBUCURRENCY4@@@Z 1004a9f0 f   i4conv.obj
 0001:00049a40       ?flags4dateTimeInit@@YAXXZ 1004aa40 f   i4conv.obj
 0001:00049a80       ?t4dateTimeToFox@@YAXPADPBJ@Z 1004aa80 f   i4conv.obj
 0001:00049b30       ?t4dateTimeToFoxMilli@@YAXPADPBJ@Z 1004ab30 f   i4conv.obj
 0001:00049bc0       ?t4dblToCurFox@@YAXPADN@Z  1004abc0 f   i4conv.obj
 0001:00049bf0       ?t4floatToFox@@YAXPADPBM@Z 1004abf0 f   i4conv.obj
 0001:00049c40       _t4dblToFoxExport@12       1004ac40 f   i4conv.obj
 0001:00049c60       ?t4dblToFox@@YAXPADN@Z     1004ac60 f   i4conv.obj
 0001:00049cb0       ?i4createThread@@YAXPAX@Z  1004acb0 f   i4create.obj
 0001:00049cd0       _i4createWithProgress@20   1004acd0 f   i4create.obj
 0001:00049e40       _i4addEntryToGroupFile@8   1004ae40 f   i4create.obj
 0001:00049e40       _d4writeBuffer@8           1004ae40 f   i4create.obj
 0001:00049e50       _i4create@12               1004ae50 f   i4create.obj
 0001:0004ac00       _t4create@16               1004bc00 f   i4create.obj
 0001:0004ac20       _I4createOpen@44           1004bc20 f   i4create.obj
 0001:0004ace0       _I4create                  1004bce0 f   i4create.obj
 0001:0004ae40       _i4close@4                 1004be40 f   i4index.obj
 0001:0004aef0       _t4fileName@4              1004bef0 f   i4index.obj
 0001:0004af20       _i4fileName@4              1004bf20 f   i4index.obj
 0001:0004af50       _tfile4free                1004bf50 f   i4index.obj
 0001:0004aff0       _i4closeLow@4              1004bff0 f   i4index.obj
 0001:0004b0e0       _index4close               1004c0e0 f   i4index.obj
 0001:0004b360       _index4extend              1004c360 f   i4index.obj
 0001:0004b440       _index4flush               1004c440 f   i4index.obj
 0001:0004b470       _index4update              1004c470 f   i4index.obj
 0001:0004b510       _i4open@8                  1004c510 f   i4index.obj
 0001:0004b7f0       _index4open                1004c7f0 f   i4index.obj
 0001:0004bd80       _i4tag@8                   1004cd80 f   i4index.obj
 0001:0004be80       _index4shrink              1004ce80 f   i4index.obj
 0001:0004bf00       _index4updateHeader        1004cf00 f   i4index.obj
 0001:0004bfc0       _i4versionCheck@12         1004cfc0 f   i4index.obj
 0001:0004c170       _index4versionCheck        1004d170 f   i4index.obj
 0001:0004c270       _tfile4versionCheckFree@4  1004d270 f   i4index.obj
 0001:0004c2e0       _index4isProduction@4      1004d2e0 f   i4index.obj
 0001:0004c3b0       _I4open                    1004d3b0 f   i4index.obj
 0001:0004c4c0       _expr4getReturnType@8      1004d4c0 f   i4index.obj
 0001:0004c4f0       _tfile4isDescending@4      1004d4f0 f   i4info.obj
 0001:0004c510       _t4alias@4                 1004d510 f   i4info.obj
 0001:0004c550       _t4descending@4            1004d550 f   i4info.obj
 0001:0004c560       _i4tagInfo@4               1004d560 f   i4info.obj
 0001:0004c660       ?t4noChangeStr@@YAXPAUCOLLATE4@@PADPBDHPAH@Z 1004d660 f   i4init.obj
 0001:0004c690       ?t4cdxCmp@@YAHPBX0I@Z      1004d690 f   i4init.obj
 0001:0004c6d0       _tfile4init                1004d6d0 f   i4init.obj
 0001:0004ccb0       _tfile4initSeekConv        1004dcb0 f   i4init.obj
 0001:0004d030       _t4getKey@4                1004e030 f   I4KEY.obj
 0001:0004d040       _tfile4key@4               1004e040 f   I4KEY.obj
 0001:0004d0a0       _tfile4lock@8              1004e0a0 f   I4LOCK.obj
 0001:0004d0a0       _tfile4unlock@8            1004e0a0 f   I4LOCK.obj
 0001:0004d0b0       _index4lock                1004e0b0 f   I4LOCK.obj
 0001:0004d340       _index4unlock              1004e340 f   I4LOCK.obj
 0001:0004d3b0       _tfile4type                1004e3b0 f   i4ntag.obj
 0001:0004d3c0       _t4close@4                 1004e3c0 f   i4ntag.obj
 0001:0004d3e0       _tfile4positionDbl         1004e3e0 f   I4POSITI.obj
 0001:0004d490       _tfile4position@4          1004e490 f   I4POSITI.obj
 0001:0004d4c0       _tfile4positionSet@12      1004e4c0 f   I4POSITI.obj
 0001:0004d5a0       _t4position@4              1004e5a0 f   I4POSITI.obj
 0001:0004d610       _tfile4remove              1004e610 f   i4remove.obj
 0001:0004d650       _tfile4removeCalc          1004e650 f   i4remove.obj
 0001:0004d6a0       ?tfile4removeBranch@@YAHPAUTAG4FILESt@@PAUB4BLOCK@@@Z 1004e6a0 f   i4remove.obj
 0001:0004d830       _tfile4removeCurrent       1004e830 f   i4remove.obj
 0001:0004d990       _t4keyLenExported@4        1004e990 f   I4TAG.obj
 0001:0004d9b0       _t4getTagFile@4            1004e9b0 f   I4TAG.obj
 0001:0004d9d0       _t4getCollateName@4        1004e9d0 f   I4TAG.obj
 0001:0004d9e0       _tfile4dskipExport@8       1004e9e0 f   I4TAG.obj
 0001:0004da10       _tfile4exprKeyExport@8     1004ea10 f   I4TAG.obj
 0001:0004da30       _i4readBlock               1004ea30 f   I4TAG.obj
 0001:0004dc10       _tfile4bottom@4            1004ec10 f   I4TAG.obj
 0001:0004dc50       _tfile4branchSplit         1004ec50 f   I4TAG.obj
 0001:0004dcf0       _tfile4descending@8        1004ecf0 f   I4TAG.obj
 0001:0004dd10       _tfile4down                1004ed10 f   I4TAG.obj
 0001:0004dfc0       _tfile4eof@4               1004efc0 f   I4TAG.obj
 0001:0004dff0       _tfile4count@4             1004eff0 f   I4TAG.obj
 0001:0004e060       _tfile4empty@4             1004f060 f   I4TAG.obj
 0001:0004e090       _tfile4freeAll             1004f090 f   I4TAG.obj
 0001:0004e0c0       _tfile4freeSaved           1004f0c0 f   I4TAG.obj
 0001:0004e130       _tfile4go@16               1004f130 f   I4TAG.obj
 0001:0004e170       _tfile4goEof               1004f170 f   I4TAG.obj
 0001:0004e1a0       _tfile4go2                 1004f1a0 f   I4TAG.obj
 0001:0004e510       _tfile4keyData             1004f510 f   I4TAG.obj
 0001:0004e530       _tfile4leafSplit           1004f530 f   I4TAG.obj
 0001:0004e970       _tfile4outOfDate           1004f970 f   I4TAG.obj
 0001:0004e9f0       _tfile4recNo@4             1004f9f0 f   I4TAG.obj
 0001:0004ea50       _tfile4rlBottom            1004fa50 f   I4TAG.obj
 0001:0004eb20       _tfile4rlTop               1004fb20 f   I4TAG.obj
 0001:0004ebe0       _tfile4seek@12             1004fbe0 f   I4TAG.obj
 0001:0004efa0       _tfile4skip@8              1004ffa0 f   I4TAG.obj
 0001:0004f2d0       _tfile4setCollatingSeq     100502d0 f   I4TAG.obj
 0001:0004f7c0       _tfile4split               100507c0 f   I4TAG.obj
 0001:0004f900       _t4versionCheckExport@12   10050900 f   I4TAG.obj
 0001:0004f930       _tfile4top@4               10050930 f   I4TAG.obj
 0001:0004f970       _tfile4unique              10050970 f   I4TAG.obj
 0001:0004f990       _tfile4up                  10050990 f   I4TAG.obj
 0001:0004f9c0       _tfile4update              100509c0 f   I4TAG.obj
 0001:0004fac0       _tfile4upToRoot            10050ac0 f   I4TAG.obj
 0001:0004fb00       _t4unique@4                10050b00 f   I4TAG.obj
 0001:0004fb50       ?t4infoN@@YGHPAUTAG4St@@@Z 10050b50 f   I4TAG.obj
 0001:0004fb70       ?t4exprContextSet@@YGXPAUTAG4St@@PAUDATA4St@@@Z 10050b70 f   I4TAG.obj
 0001:0004fb90       ?t4field@@YGPAUFIELD4St@@PAUTAG4St@@@Z 10050b90 f   I4TAG.obj
 0001:0004fbb0       _t4index@4                 10050bb0 f   I4TAG.obj
 0001:0004fbc0       ?tfile4exprNullLow@@YGHPAUTAG4FILESt@@@Z 10050bc0 f   I4TAG.obj
 0001:0004fbe0       ?t4tagFile@@YGPAUTAG4FILESt@@PAUTAG4St@@@Z 10050be0 f   I4TAG.obj
 0001:0004fbf0       _t4seekNdo                 10050bf0 f   I4TAG.obj
 0001:0004fc60       _tfile4skipCache@12        10050c60 f   I4TAG.obj
 0001:0004fc60       _code4encryptConnection@12 10050c60 f   I4TAG.obj
 0001:0004fc60       _code4swapLogFile@12       10050c60 f   I4TAG.obj
 0001:0004fc70       _t4readBuffer@8            10050c70 f   I4TAG.obj
 0001:0004fc80       _inter4                    10050c80 f   I4THREAD.obj
 0001:0004fcc0       _inter4completeRequested   10050cc0 f   I4THREAD.obj
 0001:0004fd00       _inter4completeRequired    10050d00 f   I4THREAD.obj
 0001:0004fdf0       _inter4error               10050df0 f   I4THREAD.obj
 0001:0004fe90       _inter4init                10050e90 f   I4THREAD.obj
 0001:00050110       _inter4initUndo            10051110 f   I4THREAD.obj
 0001:00050190       _inter4readCompleted       10051190 f   I4THREAD.obj
 0001:000501e0       _inter4readRequested       100511e0 f   I4THREAD.obj
 0001:00050220       _inter4readRequired        10051220 f   I4THREAD.obj
 0001:000503c0       _inter4shutdown            100513c0 f   I4THREAD.obj
 0001:000503f0       _inter4shutdownRequest     100513f0 f   I4THREAD.obj
 0001:00050460       _inter4write               10051460 f   I4THREAD.obj
 0001:00050560       _inter4writeCompleted      10051560 f   I4THREAD.obj
 0001:00050610       _inter4writeRequested      10051610 f   I4THREAD.obj
 0001:00050650       _inter4writeRequired       10051650 f   I4THREAD.obj
 0001:000506f0       _java4messageConnect       100516f0 f   j4java.obj
 0001:00050970       _java4processMessage@12    10051970 f   j4java.obj
 0001:000538d0       _l4addAfter@12             100548d0 f   L4LINK.obj
 0001:00053920       _l4addBefore@12            10054920 f   L4LINK.obj
 0001:00053960       _l4prev@8                  10054960 f   L4LINK.obj
 0001:00053990       _l4remove@8                10054990 f   L4LINK.obj
 0001:00053a00       _l4seek@8                  10054a00 f   L4LINK.obj
 0001:00053a40       _list4mutexAdd             10054a40 f   l4mutex.obj
 0001:00053ac0       _list4mutexInit            10054ac0 f   l4mutex.obj
 0001:00053b00       _list4mutexInitUndo        10054b00 f   l4mutex.obj
 0001:00053b30       _list4mutexRemove          10054b30 f   l4mutex.obj
 0001:00053bb0       _list4mutexRemoveLink      10054bb0 f   l4mutex.obj
 0001:00053c30       _memo4fileCreate           10054c30 f   m4create.obj
 0001:00053f40       _memo4fileWriteBoundary    10054f40 f   m4create.obj
 0001:000540f0       _memo4fileDump             100550f0 f   m4create.obj
 0001:00054270       _memo4fileLock             10055270 f   m4file.obj
 0001:000542f0       _memo4fileUnlock           100552f0 f   m4file.obj
 0001:00054340       _memo4fileOpen             10055340 f   m4file.obj
 0001:000543d0       _memo4fileReadPart         100553d0 f   m4file.obj
 0001:00054690       _memo4fileWritePart        10055690 f   m4file.obj
 0001:00054970       _memo4fileWrite            10055970 f   m4file.obj
 0001:00054aa0       _bitmap4create             10055aa0 f   m4map.obj
 0001:00054ae0       _bitmap4destroy            10055ae0 f   m4map.obj
 0001:00054b80       _bitmap4combineLeafs       10055b80 f   m4map.obj
 0001:00056590       _bitmap4copy               10057590 f   m4map.obj
 0001:00056670       _bitmap4evaluate           10057670 f   m4map.obj
 0001:00057700       _relate4optimizeable@4     10058700 f   m4map.obj
 0001:00057830       _code4memoCompress@8       10058830 f   m4memo.obj
 0001:00057870       _memo4lenPart              10058870 f   m4memo.obj
 0001:000578d0       _d4memoCompress@4          100588d0 f   m4memo.obj
 0001:00057980       _dfile4memoCompress        10058980 f   m4memo.obj
 0001:00057e00       _d4validateMemoIds         10058e00 f   m4memo.obj
 0001:00057f00       _mem4allocDefault@8        10058f00 f   m4memory.obj
 0001:00057f30       _u4allocated               10058f30 f   m4memory.obj
 0001:00057f40       _u4numAllocated            10058f40 f   m4memory.obj
 0001:00057f50       _mem4allocErrDefault@12    10058f50 f   m4memory.obj
 0001:00058120       _mem4createDefault@20      10059120 f   m4memory.obj
 0001:000582f0       _mem4createAllocDefault@28 100592f0 f   m4memory.obj
 0001:00058340       _mem4freeDefault@8         10059340 f   m4memory.obj
 0001:000583c0       _mem4release@4             100593c0 f   m4memory.obj
 0001:00058460       _u4allocDefault@4          10059460 f   m4memory.obj
 0001:00058500       _u4allocErDefault@8        10059500 f   m4memory.obj
 0001:00058560       _u4freeDefault@4           10059560 f   m4memory.obj
 0001:000585f0       _mem4reset@0               100595f0 f   m4memory.obj
 0001:000586c0       _mem4init@0                100596c0 f   m4memory.obj
 0001:00058780       _opt4blockClear            10059780 f   o4opt.obj
 0001:000587a0       ?opt4writeCompletionRoutine@@YAXPAX@Z 100597a0 f   o4opt.obj
 0001:000587f0       _opt4blockRemove           100597f0 f   o4opt.obj
 0001:00058b50       _opt4fileDelete            10059b50 f   o4opt.obj
 0001:00058ef0       _opt4fileExtend            10059ef0 f   o4opt.obj
 0001:00058f70       _opt4flushAll              10059f70 f   o4opt.obj
 0001:00059070       _opt4fileFlushList         1005a070 f   o4opt.obj
 0001:00059150       ?opt4largeWriteCompletionRoutine@@YAXPAX@Z 1005a150 f   o4opt.obj
 0001:00059150       ?file4seqWriteCompletionRoutine@@YAXPAX@Z 1005a150 f   o4opt.obj
 0001:00059160       _opt4flushWriteBuffer      1005a160 f   o4opt.obj
 0001:00059300       _opt4fileHash              1005a300 f   o4opt.obj
 0001:00059330       _opt4fileWrite             1005a330 f   o4opt.obj
 0001:00059ce0       _opt4fileRead              1005ace0 f   o4opt.obj
 0001:00059fc0       _opt4blockLruTop           1005afc0 f   o4opt.obj
 0001:0005a250       ?opt4readCompletionRoutine@@YAXPAX@Z 1005b250 f   o4opt.obj
 0001:0005a970       _opt4fileReturnBlock       1005b970 f   o4opt.obj
 0001:0005aa00       _e4isConstant              1005ba00 f   r4log.obj
 0001:0005aad0       _e4isTag                   1005bad0 f   r4log.obj
 0001:0005ae50       _log4buildDatabaseLists    1005be50 f   r4log.obj
 0001:0005b1f0       _log4bitmapDo              1005c1f0 f   r4log.obj
 0001:0005b270       _log4determineEvaluationOrder 1005c270 f   r4log.obj
 0001:0005b800       _log4true                  1005c800 f   r4log.obj
 0001:0005b9b0       _i4deleteRemoveKeys        1005c9b0 f   r4reinde.obj
 0001:0005ba00       _code4status@4             1005ca00 f   r4reinde.obj
 0001:0005ba60       _r4reindexStatusInit       1005ca60 f   r4reinde.obj
 0001:0005bb40       _r4reindexStatusInitDone   1005cb40 f   r4reinde.obj
 0001:0005bba0       _r4reindexStatusNextTag    1005cba0 f   r4reinde.obj
 0001:0005bbf0       _r4reindexStatusFinalSet   1005cbf0 f   r4reinde.obj
 0001:0005bc20       _r4reindexStatusInitUndo   1005cc20 f   r4reinde.obj
 0001:0005bc50       _i4reindex@4               1005cc50 f   r4reinde.obj
 0001:0005c1e0       _r4reindexInit             1005d1e0 f   r4reinde.obj
 0001:0005c290       _r4reindexFree             1005d290 f   r4reinde.obj
 0001:0005c2e0       _r4reindexBlocksAlloc      1005d2e0 f   r4reinde.obj
 0001:0005c390       _r4reindexSupplyKeys       1005d390 f   r4reinde.obj
 0001:0005c590       _r4reindexTagHeadersCalc   1005d590 f   r4reinde.obj
 0001:0005c7a0       _r4reindexTagHeadersWrite  1005d7a0 f   r4reinde.obj
 0001:0005ca60       _r4reindexWriteKeys        1005da60 f   r4reinde.obj
 0001:0005cee0       _r4reindexAdd              1005dee0 f   r4reinde.obj
 0001:0005d250       _r4reindexFinish           1005e250 f   r4reinde.obj
 0001:0005d410       _t4reindex@4               1005e410 f   R4REINDX.obj
 0001:0005d430       _r4dataListAdd             1005e430 f   r4relate.obj
 0001:0005d4a0       _r4dataListFind            1005e4a0 f   r4relate.obj
 0001:0005d4e0       _r4dataListFree            1005e4e0 f   r4relate.obj
 0001:0005d540       _r4dataListBuild           1005e540 f   r4relate.obj
 0001:0005d630       _relate4bottom@4           1005e630 f   r4relate.obj
 0001:0005daa0       _relate4changed@4          1005eaa0 f   r4relate.obj
 0001:0005dc60       _relate4querySetCallbackInit@8 1005ec60 f   r4relate.obj
 0001:0005dc90       _relate4querySetCallbackInitUndo@4 1005ec90 f   r4relate.obj
 0001:0005dcc0       _relate4callbackInit@12    1005ecc0 f   r4relate.obj
 0001:0005dd00       _relate4callbackInitUndo@4 1005ed00 f   r4relate.obj
 0001:0005dd30       _relate4createSlave@16     1005ed30 f   r4relate.obj
 0001:0005def0       _relate4doAll@4            1005eef0 f   r4relate.obj
 0001:0005e000       _relate4doOne@4            1005f000 f   r4relate.obj
 0001:0005e0e0       _relate4eof@4              1005f0e0 f   r4relate.obj
 0001:0005e140       _relate4errorAction@8      1005f140 f   r4relate.obj
 0001:0005e1a0       _relate4freeRelate@8       1005f1a0 f   r4relate.obj
 0001:0005e320       _relate4free@8             1005f320 f   r4relate.obj
 0001:0005e4a0       _relate4init@8             1005f4a0 f   r4relate.obj
 0001:0005e780       _relate4lockAdd@4          1005f780 f   r4relate.obj
 0001:0005ee60       _relate4lookupRelate       1005fe60 f   r4relate.obj
 0001:0005eeb0       _relate4matchLen@8         1005feb0 f   r4relate.obj
 0001:0005f010       _relate4next@4             10060010 f   r4relate.obj
 0001:0005fa90       _relate4querySet@8         10060a90 f   r4relate.obj
 0001:0005fb70       _relate4readIn             10060b70 f   r4relate.obj
 0001:000605c0       _relate4skip@8             100615c0 f   r4relate.obj
 0001:00060620       _relate4skipEnable@8       10061620 f   r4relate.obj
 0001:00060e30       _relate4sortSet@8          10061e30 f   r4relate.obj
 0001:00060f20       _relate4sortSetTag@8       10061f20 f   r4relate.obj
 0001:00061770       _relate4top@4              10062770 f   r4relate.obj
 0001:00061a10       _relate4type@8             10062a10 f   r4relate.obj
 0001:00061a70       _relate4retain@8           10062a70 f   r4relate.obj
 0001:00061ad0       _d4readBuffer@12           10062ad0 f   r4relate.obj
 0001:00061ad0       _relate4readBuffer@12      10062ad0 f   r4relate.obj
 0001:00061ae0       ?relate4countCanApprox@@YAEPAURELATE4St@@@Z 10062ae0 f   r4relate.obj
 0001:00061b30       _relate4count@4            10062b30 f   r4relate.obj
 0001:00061eb0       _relate4skipMaster@8       10062eb0 f   r4relate.obj
 0001:000620a0       _semaphore4init@4          100630a0 f   sema4.obj
 0001:000620e0       _semaphore4initShared@8    100630e0 f   sema4.obj
 0001:00062120       _semaphore4initUndo@4      10063120 f   sema4.obj
 0001:00062150       _sort4getMemInit@4         10063150 f   S4INIT.obj
 0001:000621a0       _sort4getInit@4            100631a0 f   S4INIT.obj
 0001:00062220       _sort4spoolsInit@8         10063220 f   S4INIT.obj
 0001:00062590       _sort4init@16              10063590 f   S4INIT.obj
 0001:00062610       _sort4initSet@16           10063610 f   S4INIT.obj
 0001:00062690       _sort4initAlloc@4          10063690 f   S4INIT.obj
 0001:00062760       _sort4initPointers         10063760 f   S4INIT.obj
 0001:000627c0       _sort4alloc@4              100637c0 f   S4INIT.obj
 0001:000627f0       _sort4assignCmp2@8         100637f0 f   S4INIT.obj
 0001:00062810       _relate4freeBitmaps        10063810 f   S4INITFR.obj
 0001:00062860       _sort4getInitFree@8        10063860 f   S4INITFR.obj
 0001:00062a00       _sort4initFree@20          10063a00 f   S4INITFR.obj
 0001:00062a70       _s4nextSpoolEntry          10063a70 f   S4NEXT.obj
 0001:00062cd0       _s4quick                   10063cd0 f   S4QUICK.obj
 0001:00063010       _signal4routineInit        10064010 f   S4SIGNAL.obj
 0001:00063040       _signal4arrayAdd           10064040 f   S4SIGNAL.obj
 0001:00063170       _signal4arrayInit          10064170 f   S4SIGNAL.obj
 0001:000631f0       _signal4arrayInitUndo      100641f0 f   S4SIGNAL.obj
 0001:00063220       _signal4arrayRemoveSignal  10064220 f   S4SIGNAL.obj
 0001:000632b0       _signal4arrayWait          100642b0 f   S4SIGNAL.obj
 0001:00063410       _s4deleteSpoolEntry        10064410 f   s4sort.obj
 0001:00063450       _s4flush                   10064450 f   s4sort.obj
 0001:00063550       _sort4free@4               10064550 f   s4sort.obj
 0001:00063610       _sort4get@16               10064610 f   s4sort.obj
 0001:00063690       _sort4getPtrPtr            10064690 f   s4sort.obj
 0001:00063740       _sort4put@16               10064740 f   s4sort.obj
 0001:000638f0       ?u4nameExtWideFindExtensionPos@@YAHPBG@Z 100648f0 f   u4name.obj
 0001:00063940       _u4nameExtWide@16          10064940 f   u4name.obj
 0001:000639b0       _u4nameWideRemoveGivenExtension@8 100649b0 f   u4name.obj
 0001:00063a40       ?u4nameExtFindExtensionPos@@YAHPBD@Z 10064a40 f   u4name.obj
 0001:00063a90       _u4nameRemoveGivenExtension@8 10064a90 f   u4name.obj
 0001:00063b20       _u4nameExt@16              10064b20 f   u4name.obj
 0001:00063bd0       _u4nameCreateMultiDirectories@20 10064bd0 f   u4name.obj
 0001:00063e90       _u4nameCurrentExtended@16  10064e90 f   u4name.obj
 0001:00063fc0       _u4nameCurrent@12          10064fc0 f   u4name.obj
 0001:00064340       _u4nameReplaceFwdSlash@8   10065340 f   u4name.obj
 0001:00064360       _u4nameMakeFindDrive@16    10065360 f   u4name.obj
 0001:000643d0       _u4nameMake@20             100653d0 f   u4name.obj
 0001:000644e0       _u4namePiece@20            100654e0 f   u4name.obj
 0001:000645e0       _u4trim@4                  100655e0 f   u4name.obj
 0001:00064610       _u4nameChar@4              10065610 f   u4name.obj
 0001:00064640       _u4nameFindFileName@8      10065640 f   u4name.obj
 0001:00064660       _u4namePathSpecial@12      10065660 f   u4name.obj
 0001:000646a0       _u4namePath@12             100656a0 f   u4name.obj
 0001:00064700       _u4namecmp@12              10065700 f   u4name.obj
 0001:00064760       _u4namencmp@16             10065760 f   u4name.obj
 0001:00064790       _u4nameRetExt              10065790 f   u4name.obj
 0001:00064870       _u4pathSet@4               10065870 f   u4name.obj
 0001:000648c0       _u4allocAgainDefault@16    100658c0 f   u4util.obj
 0001:00064960       _u4allocFreeDefault@8      10065960 f   u4util.obj
 0001:00064aa0       _u4delayHundredth@4        10065aa0 f   u4util.obj
 0001:00064ac0       _u4getMaxIndexSize@0       10065ac0 f   u4util.obj
 0001:00064ad0       _u4environ                 10065ad0 f   u4util.obj
 0001:00064b20       _u4ncpy@12                 10065b20 f   u4util.obj
 0001:00064b80       _u4yymmdd@4                10065b80 f   u4util.obj
 0001:00064bc0       _u4remove@4                10065bc0 f   u4util.obj
 0001:00064be0       _u4rename@8                10065be0 f   u4util.obj
 0001:00064c00       ?t4convertSubSortCompressChar@@YAXPAUCOLLATE4@@PADPBDHPAH@Z 10065c00 f   u4util.obj
 0001:00064ef0       ?t4convertSimpleChar@@YAXPAUCOLLATE4@@PADPBDHPAH@Z 10065ef0 f   u4util.obj
 0001:00064f60       _collation4getExport@4     10065f60 f   u4util.obj
 0001:00064f80       _collate4setupReadFromDisk 10065f80 f   u4util.obj
 0001:00065480       _collate4setupUnicodeFromChar 10066480 f   u4util.obj
 0001:00065630       _collate4initUndo          10066630 f   u4util.obj
 0001:00065690       ?u4keycmpPartial@@YAHPBX0IIIPAUCOLLATE4@@PBDH@Z 10066690 f   u4util.obj
 0001:00065810       ?u4keycmp@@YAHPBX0IIIPAUCOLLATE4@@@Z 10066810 f   u4util.obj
 0001:00065840       ?u4createCopyrightFromStamp@@YAHPADH@Z 10066840 f   source5.obj
 0001:000658e0       _server4securityOption@0   100668e0 f   source5.obj
 0001:000658f0       _server4CustomerFromStamp@0 100668f0 f   source5.obj
 0001:00065900       _server4SerialFromStamp@0  10066900 f   source5.obj
 0001:00065910       _WSAStartup@8              10066910 f   wsock32:WSOCK32.dll
 0001:00065916       _WSACleanup@0              10066916 f   wsock32:WSOCK32.dll
 0001:0006591c       _ntohs@4                   1006691c f   wsock32:WSOCK32.dll
 0001:00065922       _htonl@4                   10066922 f   wsock32:WSOCK32.dll
 0001:00065928       _htons@4                   10066928 f   wsock32:WSOCK32.dll
 0001:0006592e       _getsockname@12            1006692e f   wsock32:WSOCK32.dll
 0001:00065934       _WSAGetLastError@0         10066934 f   wsock32:WSOCK32.dll
 0001:0006593a       _accept@12                 1006693a f   wsock32:WSOCK32.dll
 0001:00065940       _recv@16                   10066940 f   wsock32:WSOCK32.dll
 0001:00065946       ___WSAFDIsSet@8            10066946 f   wsock32:WSOCK32.dll
 0001:0006594c       _select@20                 1006694c f   wsock32:WSOCK32.dll
 0001:00065952       _closesocket@4             10066952 f   wsock32:WSOCK32.dll
 0001:00065958       _connect@12                10066958 f   wsock32:WSOCK32.dll
 0001:0006595e       _socket@12                 1006695e f   wsock32:WSOCK32.dll
 0001:00065964       _ioctlsocket@12            10066964 f   wsock32:WSOCK32.dll
 0001:0006596a       _setsockopt@20             1006696a f   wsock32:WSOCK32.dll
 0001:00065970       _listen@8                  10066970 f   wsock32:WSOCK32.dll
 0001:00065976       _bind@12                   10066976 f   wsock32:WSOCK32.dll
 0001:0006597c       _getpeername@12            1006697c f   wsock32:WSOCK32.dll
 0001:00065982       _send@16                   10066982 f   wsock32:WSOCK32.dll
 0001:00065988       _ntohl@4                   10066988 f   wsock32:WSOCK32.dll
 0001:0006598e       _GetOpenFileNameA@4        1006698e f   comdlg32:comdlg32.dll
 0001:00065994       _compress2                 10066994 f   zlib:zlib.dll
 0001:0006599a       _uncompress                1006699a f   zlib:zlib.dll
 0001:000659a0       __fpmath                   100669a0 f   LIBCMT:fpinit.obj
 0001:000659b7       __fpclear                  100669b7 f   LIBCMT:fpinit.obj
 0001:000659b8       __cfltcvt_init             100669b8 f   LIBCMT:fpinit.obj
 0001:000659f0       _memmove                   100669f0 f   LIBCMT:memmove.obj
 0001:00065d30       __allmul                   10066d30 f   LIBCMT:llmul.obj
 0001:00065d70       __aulldiv                  10066d70 f   LIBCMT:ulldiv.obj
 0001:00065dd8       _atof                      10066dd8 f   LIBCMT:atof.obj
 0001:00065e2f       _atol                      10066e2f f   LIBCMT:atox.obj
 0001:00065eba       _atoi                      10066eba f   LIBCMT:atox.obj
 0001:00065ec5       __atoi64                   10066ec5 f   LIBCMT:atox.obj
 0001:00065f90       _strchr                    10066f90 f   LIBCMT:strchr.obj
 0001:00065f96       ___from_strstr_to_strchr   10066f96 f   LIBCMT:strchr.obj
 0001:00066251       _strtoul                   10067251 f   LIBCMT:strtol.obj
 0001:00066268       _clock                     10067268 f   LIBCMT:clock.obj
 0001:000662ab       ___inittime                100672ab f   LIBCMT:clock.obj
 0001:000662e0       __beginthread              100672e0 f   LIBCMT:thread.obj
 0001:000663ea       __endthread                100673ea f   LIBCMT:thread.obj
 0001:00066429       _sprintf                   10067429 f   LIBCMT:sprintf.obj
 0001:0006647b       _wcslen                    1006747b f   LIBCMT:wcslen.obj
 0001:00066498       _time                      10067498 f   LIBCMT:time.obj
 0001:00066574       _isprint                   10067574 f   LIBCMT:_ctype.obj
 0001:000665a4       __ftol                     100675a4 f   LIBCMT:ftol.obj
 0001:000665d0       _strncpy                   100675d0 f   LIBCMT:strncpy.obj
 0001:000666ce       __beginthreadex            100676ce f   LIBCMT:threadex.obj
 0001:000667d5       __endthreadex              100677d5 f   LIBCMT:threadex.obj
 0001:00066810       __chkstk                   10067810 f   LIBCMT:chkstk.obj
 0001:00066810       __alloca_probe             10067810 f   LIBCMT:chkstk.obj
 0001:0006683f       _malloc                    1006783f f   LIBCMT:malloc.obj
 0001:00066851       __nh_malloc                10067851 f   LIBCMT:malloc.obj
 0001:0006687d       __heap_alloc               1006787d f   LIBCMT:malloc.obj
 0001:000668cb       _free                      100678cb f   LIBCMT:free.obj
 0001:00066913       _difftime                  10067913 f   LIBCMT:difftime.obj
 0001:00066930       _strncat                   10067930 f   LIBCMT:strncat.obj
 0001:00066a60       __CIpow                    10067a60 f   LIBCMT:pow.obj
 0001:00066a79       _pow                       10067a79 f   LIBCMT:pow.obj
 0001:00066c80       _strncmp                   10067c80 f   LIBCMT:strncmp.obj
 0001:00066cb8       _toupper                   10067cb8 f   LIBCMT:toupper.obj
 0001:00066d27       __toupper_lk               10067d27 f   LIBCMT:toupper.obj
 0001:00066df3       __access                   10067df3 f   LIBCMT:access.obj
 0001:00066e40       __alldiv                   10067e40 f   LIBCMT:lldiv.obj
 0001:00066ef0       __allrem                   10067ef0 f   LIBCMT:llrem.obj
 0001:00066fb0       __aullrem                  10067fb0 f   LIBCMT:ullrem.obj
 0001:00067030       __aullshr                  10068030 f   LIBCMT:ullshr.obj
 0001:00067050       _strrchr                   10068050 f   LIBCMT:strrchr.obj
 0001:00067080       __allshl                   10068080 f   LIBCMT:llshl.obj
 0001:000670a0       _memcmp                    100680a0 f   LIBCMT:memcmp.obj
 0001:0006714c       _wcscpy                    1006814c f   LIBCMT:wcscat.obj
 0001:00067171       __wcsicmp                  10068171 f   LIBCMT:wcsicmp.obj
 0001:00067250       __getcwd                   10068250 f   LIBCMT:getcwd.obj
 0001:00067277       __getdcwd                  10068277 f   LIBCMT:getcwd.obj
 0001:000672a0       __getdcwd_lk               100682a0 f   LIBCMT:getcwd.obj
 0001:00067375       __validdrive               10068375 f   LIBCMT:getcwd.obj
 0001:000673ac       __getdrive                 100683ac f   LIBCMT:drive.obj
 0001:000673ef       __chdrive                  100683ef f   LIBCMT:drive.obj
 0001:00067462       _getenv                    10068462 f   LIBCMT:getenv.obj
 0001:00067483       __getenv_lk                10068483 f   LIBCMT:getenv.obj
 0001:00067500       _remove                    10068500 f   LIBCMT:unlink.obj
 0001:0006752a       _rename                    1006852a f   LIBCMT:rename.obj
 0001:00067558       __CRT_INIT@12              10068558 f   LIBCMT:dllcrt0.obj
 0001:00067631       __DllMainCRTStartup@12     10068631 f   LIBCMT:dllcrt0.obj
 0001:000676ce       __amsg_exit                100686ce f   LIBCMT:dllcrt0.obj
 0001:00067701       __setdefaultprecision      10068701 f   LIBCMT:fp8.obj
 0001:00067713       __ms_p5_test_fdiv          10068713 f   LIBCMT:testfdiv.obj
 0001:00067751       __ms_p5_mp_test_fdiv       10068751 f   LIBCMT:testfdiv.obj
 0001:0006777a       __forcdecpt                1006877a f   LIBCMT:cvt.obj
 0001:000677d4       __cropzeros                100687d4 f   LIBCMT:cvt.obj
 0001:00067822       __positive                 10068822 f   LIBCMT:cvt.obj
 0001:0006783a       __fassign                  1006883a f   LIBCMT:cvt.obj
 0001:00067878       __cftoe                    10068878 f   LIBCMT:cvt.obj
 0001:0006799b       __cftof                    1006899b f   LIBCMT:cvt.obj
 0001:00067a97       __cftog                    10068a97 f   LIBCMT:cvt.obj
 0001:00067b2a       __cfltcvt                  10068b2a f   LIBCMT:cvt.obj
 0001:00067ba0       __fltin2                   10068ba0 f   LIBCMT:cfin.obj
 0001:00067c20       _strlen                    10068c20 f   LIBCMT:strlen.obj
 0001:00067c9b       __isctype                  10068c9b f   LIBCMT:isctype.obj
 0001:00067d10       __dosmaperr                10068d10 f   LIBCMT:dosmap.obj
 0001:00067d83       __errno                    10068d83 f   LIBCMT:dosmap.obj
 0001:00067d8c       ___doserrno                10068d8c f   LIBCMT:dosmap.obj
 0001:00067d95       __mtinit                   10068d95 f   LIBCMT:tidtable.obj
 0001:00067de9       __mtterm                   10068de9 f   LIBCMT:tidtable.obj
 0001:00067e07       __initptd                  10068e07 f   LIBCMT:tidtable.obj
 0001:00067e1a       __getptd                   10068e1a f   LIBCMT:tidtable.obj
 0001:00067e81       __freeptd                  10068e81 f   LIBCMT:tidtable.obj
 0001:00067f21       _calloc                    10068f21 f   LIBCMT:calloc.obj
 0001:00067fae       __cinit                    10068fae f   LIBCMT:crt0dat.obj
 0001:00067fdb       __exit                     10068fdb f   LIBCMT:crt0dat.obj
 0001:00067fec       __cexit                    10068fec f   LIBCMT:crt0dat.obj
 0001:000680a0       __lockexit                 100690a0 f   LIBCMT:crt0dat.obj
 0001:000680a9       __unlockexit               100690a9 f   LIBCMT:crt0dat.obj
 0001:000680cc       __XcptFilter               100690cc f   LIBCMT:winxfltr.obj
 0001:00068244       __global_unwind2           10069244 f   LIBCMT:exsup.obj
 0001:00068286       __local_unwind2            10069286 f   LIBCMT:exsup.obj
 0001:000682de       __NLG_Return2              100692de f   LIBCMT:exsup.obj
 0001:000682ee       __abnormal_termination     100692ee f   LIBCMT:exsup.obj
 0001:00068311       __NLG_Notify1              10069311 f   LIBCMT:exsup.obj
 0001:0006831a       __NLG_Notify               1006931a f   LIBCMT:exsup.obj
 0001:0006832d       __NLG_Dispatch             1006932d f   LIBCMT:exsup.obj
 0001:0006833c       __except_handler3          1006933c f   LIBCMT:exsup3.obj
 0001:000683f9       __seh_longjmp_unwind@4     100693f9 f   LIBCMT:exsup3.obj
 0001:00068414       __flsbuf                   10069414 f   LIBCMT:_flsbuf.obj
 0001:0006852c       __output                   1006952c f   LIBCMT:output.obj
 0001:00068d36       ___loctotime_t             10069d36 f   LIBCMT:dtoxtime.obj
 0001:00068df8       __callnewh                 10069df8 f   LIBCMT:handler.obj
 0001:00068e13       __heap_init                10069e13 f   LIBCMT:heapinit.obj
 0001:00068e4f       __heap_term                10069e4f f   LIBCMT:heapinit.obj
 0001:00068ec4       __mtinitlocks              10069ec4 f   LIBCMT:mlock.obj
 0001:00068eed       __mtdeletelocks            10069eed f   LIBCMT:mlock.obj
 0001:00068f59       __lock                     10069f59 f   LIBCMT:mlock.obj
 0001:00068fba       __unlock                   10069fba f   LIBCMT:mlock.obj
 0001:00068fcf       ___sbh_heap_init           10069fcf f   LIBCMT:sbheap.obj
 0001:0006900d       ___sbh_find_block          1006a00d f   LIBCMT:sbheap.obj
 0001:00069038       ___sbh_free_block          1006a038 f   LIBCMT:sbheap.obj
 0001:00069363       ___sbh_alloc_block         1006a363 f   LIBCMT:sbheap.obj
 0001:0006966c       ___sbh_alloc_new_region    1006a66c f   LIBCMT:sbheap.obj
 0001:0006971d       ___sbh_alloc_new_group     1006a71d f   LIBCMT:sbheap.obj
 0001:00069818       ___sbh_resize_block        1006a818 f   LIBCMT:sbheap.obj
 0001:00069b21       __fFEXP                    1006ab21 f   LIBCMT:87tran.obj
 0001:00069b88       __rtinfpopse               1006ab88 f   LIBCMT:87tran.obj
 0001:00069b8a       __rtinfnpopse              1006ab8a f   LIBCMT:87tran.obj
 0001:00069b9a       __fFLN                     1006ab9a f   LIBCMT:87tran.obj
 0001:00069c4f       __rtinfpop                 1006ac4f f   LIBCMT:87tran.obj
 0001:00069c51       __rtinfnpop                1006ac51 f   LIBCMT:87tran.obj
 0001:00069c6e       __ffexpm1                  1006ac6e f   LIBCMT:87tran.obj
 0001:00069d20       __trandisp1                1006ad20 f   LIBCMT:87disp.obj
 0001:00069d87       __trandisp2                1006ad87 f   LIBCMT:87disp.obj
 0001:00069e13       __rttospopde               1006ae13 f   LIBCMT:87disp.obj
 0001:00069e18       __rttospop                 1006ae18 f   LIBCMT:87disp.obj
 0001:00069e1a       __rtnospop                 1006ae1a f   LIBCMT:87disp.obj
 0001:00069e1c       __rttosnpop                1006ae1c f   LIBCMT:87disp.obj
 0001:00069e1d       __rtnospopde               1006ae1d f   LIBCMT:87disp.obj
 0001:00069e24       __rtzeropop                1006ae24 f   LIBCMT:87disp.obj
 0001:00069e26       __rtzeronpop               1006ae26 f   LIBCMT:87disp.obj
 0001:00069e2b       __rtonepop                 1006ae2b f   LIBCMT:87disp.obj
 0001:00069e2d       __rtonenpop                1006ae2d f   LIBCMT:87disp.obj
 0001:00069e32       __tosnan1                  1006ae32 f   LIBCMT:87disp.obj
 0001:00069e5d       __nosnan2                  1006ae5d f   LIBCMT:87disp.obj
 0001:00069e5f       __tosnan2                  1006ae5f f   LIBCMT:87disp.obj
 0001:00069e87       __nan2                     1006ae87 f   LIBCMT:87disp.obj
 0001:00069ec6       __rtindfpop                1006aec6 f   LIBCMT:87disp.obj
 0001:00069ec8       __rtindfnpop               1006aec8 f   LIBCMT:87disp.obj
 0001:00069ed9       __rttosnpopde              1006aed9 f   LIBCMT:87disp.obj
 0001:00069ee3       __rtchsifneg               1006aee3 f   LIBCMT:87disp.obj
 0001:00069ef0       __startTwoArgErrorHandling 1006aef0 f   LIBCMT:genexcep.obj
 0001:00069f07       __startOneArgErrorHandling 1006af07 f   LIBCMT:genexcep.obj
 0001:00069f50       __twoToTOS                 1006af50 f   LIBCMT:common.obj
 0001:00069f65       __load_CW                  1006af65 f   LIBCMT:common.obj
 0001:00069f7c       __convertTOStoQNaN         1006af7c f   LIBCMT:common.obj
 0001:00069f95       __fload_withFB             1006af95 f   LIBCMT:common.obj
 0001:00069fd8       __checkTOS_withFB          1006afd8 f   LIBCMT:common.obj
 0001:00069fee       __fast_exit                1006afee f   LIBCMT:common.obj
 0001:00069ffb       __math_exit                1006affb f   LIBCMT:common.obj
 0001:0006a025       __check_overflow_exit      1006b025 f   LIBCMT:common.obj
 0001:0006a039       __check_range_exit         1006b039 f   LIBCMT:common.obj
 0001:0006a0dc       __powhlp                   1006b0dc f   LIBCMT:powhlp.obj
 0001:0006a20c       __d_inttype                1006b20c f   LIBCMT:powhlp.obj
 0001:0006a271       ___crtLCMapStringA         1006b271 f   LIBCMT:a_map.obj
 0001:0006a495       __towlower_lk              1006b495 f   LIBCMT:towlower.obj
 0001:0006a510       _strcpy                    1006b510 f   LIBCMT:strcat.obj
 0001:0006a520       _strcat                    1006b520 f   LIBCMT:strcat.obj
 0001:0006a600       __mbsnbicoll               1006b600 f   LIBCMT:mbsnbico.obj
 0001:0006a63f       ___wtomb_environ           1006b63f f   LIBCMT:wtombenv.obj
 0001:0006a6ad       __ioinit                   1006b6ad f   LIBCMT:ioinit.obj
 0001:0006a869       __ioterm                   1006b869 f   LIBCMT:ioinit.obj
 0001:0006a8bd       __setenvp                  1006b8bd f   LIBCMT:stdenvp.obj
 0001:0006a976       __setargv                  1006b976 f   LIBCMT:stdargv.obj
 0001:0006abc3       ___crtGetEnvironmentStringsA 1006bbc3 f   LIBCMT:a_env.obj
 0001:0006acf5       __FF_MSGBANNER             1006bcf5 f   LIBCMT:crt0msg.obj
 0001:0006ad2e       __NMSG_WRITE               1006bd2e f   LIBCMT:crt0msg.obj
 0001:0006ae81       __control87                1006be81 f   LIBCMT:ieee87.obj
 0001:0006aeb6       __controlfp                1006beb6 f   LIBCMT:ieee87.obj
 0001:0006afe7       _tolower                   1006bfe7 f   LIBCMT:tolower.obj
 0001:0006b056       __tolower_lk               1006c056 f   LIBCMT:tolower.obj
 0001:0006b121       __ZeroTail                 1006c121 f   LIBCMT:intrncvt.obj
 0001:0006b16a       __IncMan                   1006c16a f   LIBCMT:intrncvt.obj
 0001:0006b1c0       __RoundMan                 1006c1c0 f   LIBCMT:intrncvt.obj
 0001:0006b24c       __CopyMan                  1006c24c f   LIBCMT:intrncvt.obj
 0001:0006b267       __FillZeroMan              1006c267 f   LIBCMT:intrncvt.obj
 0001:0006b273       __IsZeroMan                1006c273 f   LIBCMT:intrncvt.obj
 0001:0006b28e       __ShrMan                   1006c28e f   LIBCMT:intrncvt.obj
 0001:0006b31b       __ld12cvt                  1006c31b f   LIBCMT:intrncvt.obj
 0001:0006b487       __ld12tod                  1006c487 f   LIBCMT:intrncvt.obj
 0001:0006b49d       __ld12tof                  1006c49d f   LIBCMT:intrncvt.obj
 0001:0006b4b3       __atodbl                   1006c4b3 f   LIBCMT:intrncvt.obj
 0001:0006b4e0       __atoflt                   1006c4e0 f   LIBCMT:intrncvt.obj
 0001:0006b50d       __fptostr                  1006c50d f   LIBCMT:_fptostr.obj
 0001:0006b584       __fltout2                  1006c584 f   LIBCMT:cfout.obj
 0001:0006b5e0       ___dtold                   1006c5e0 f   LIBCMT:cfout.obj
 0001:0006b6a0       _memset                    1006c6a0 f   LIBCMT:memset.obj
 0001:0006b6f8       __fptrap                   1006c6f8 f   LIBCMT:crt0fp.obj
 0001:0006b701       ___strgtold12              1006c701 f   LIBCMT:strgtold.obj
 0001:0006bbd2       ___crtGetStringTypeA       1006cbd2 f   LIBCMT:a_str.obj
 0001:0006bd1b       __lseek                    1006cd1b f   LIBCMT:lseek.obj
 0001:0006bd80       __lseek_lk                 1006cd80 f   LIBCMT:lseek.obj
 0001:0006bdf3       __write                    1006cdf3 f   LIBCMT:write.obj
 0001:0006be58       __write_lk                 1006ce58 f   LIBCMT:write.obj
 0001:0006bfe3       __getbuf                   1006cfe3 f   LIBCMT:_getbuf.obj
 0001:0006c027       __isatty                   1006d027 f   LIBCMT:isatty.obj
 0001:0006c050       ___initstdio               1006d050 f   LIBCMT:_file.obj
 0001:0006c0f8       ___endstdio                1006d0f8 f   LIBCMT:_file.obj
 0001:0006c10c       __lock_file                1006d10c f   LIBCMT:_file.obj
 0001:0006c13b       __lock_file2               1006d13b f   LIBCMT:_file.obj
 0001:0006c15e       __unlock_file              1006d15e f   LIBCMT:_file.obj
 0001:0006c18d       __unlock_file2             1006d18d f   LIBCMT:_file.obj
 0001:0006c1b0       _wctomb                    1006d1b0 f   LIBCMT:wctomb.obj
 0001:0006c209       __wctomb_lk                1006d209 f   LIBCMT:wctomb.obj
 0001:0006c272       ___tzset                   1006d272 f   LIBCMT:tzset.obj
 0001:0006c527       __isindst                  1006d527 f   LIBCMT:tzset.obj
 0001:0006c840       _fdiv_main_routine         1006d840 f   LIBCMT:adj_fdiv.obj
 0001:0006c957       __adj_fdiv_r               1006d957 f   LIBCMT:adj_fdiv.obj
 0001:0006cdf6       __fdivp_sti_st             1006ddf6 f   LIBCMT:adj_fdiv.obj
 0001:0006ce09       __fdivrp_sti_st            1006de09 f   LIBCMT:adj_fdiv.obj
 0001:0006ce1c       __adj_fdiv_m32             1006de1c f   LIBCMT:adj_fdiv.obj
 0001:0006ce68       __adj_fdiv_m64             1006de68 f   LIBCMT:adj_fdiv.obj
 0001:0006ceb4       __adj_fdiv_m16i            1006deb4 f   LIBCMT:adj_fdiv.obj
 0001:0006cee8       __adj_fdiv_m32i            1006dee8 f   LIBCMT:adj_fdiv.obj
 0001:0006cf1c       __adj_fdivr_m32            1006df1c f   LIBCMT:adj_fdiv.obj
 0001:0006cf68       __adj_fdivr_m64            1006df68 f   LIBCMT:adj_fdiv.obj
 0001:0006cfb4       __adj_fdivr_m16i           1006dfb4 f   LIBCMT:adj_fdiv.obj
 0001:0006cfe8       __adj_fdivr_m32i           1006dfe8 f   LIBCMT:adj_fdiv.obj
 0001:0006d01c       __safe_fdiv                1006e01c f   LIBCMT:adj_fdiv.obj
 0001:0006d031       __safe_fdivr               1006e031 f   LIBCMT:adj_fdiv.obj
 0001:0006d046       __fprem_common             1006e046 f   LIBCMT:adj_fdiv.obj
 0001:0006d24c       __adj_fprem                1006e24c f   LIBCMT:adj_fdiv.obj
 0001:0006d2fe       __fprem1_common            1006e2fe f   LIBCMT:adj_fdiv.obj
 0001:0006d504       __adj_fprem1               1006e504 f   LIBCMT:adj_fdiv.obj
 0001:0006d5b9       __safe_fprem               1006e5b9 f   LIBCMT:adj_fdiv.obj
 0001:0006d5bf       __safe_fprem1              1006e5bf f   LIBCMT:adj_fdiv.obj
 0001:0006d5c5       __adj_fpatan               1006e5c5 f   LIBCMT:adj_fdiv.obj
 0001:0006d5c8       __adj_fptan                1006e5c8 f   LIBCMT:adj_fdiv.obj
 0001:0006d5cb       __87except                 1006e5cb f   LIBCMT:87except.obj
 0001:0006d69b       __set_exp                  1006e69b f   LIBCMT:util.obj
 0001:0006d6c4       __sptype                   1006e6c4 f   LIBCMT:util.obj
 0001:0006d71e       __decomp                   1006e71e f   LIBCMT:util.obj
 0001:0006d7df       __frnd                     1006e7df f   LIBCMT:frnd.obj
 0001:0006d7f1       __fpclass                  1006e7f1 f   LIBCMT:ieeemisc.obj
 0001:0006d890       _strcmp                    1006e890 f   LIBCMT:strcmp.obj
 0001:0006d920       _strcspn                   1006e920 f   LIBCMT:strcspn.obj
 0001:0006d960       _strpbrk                   1006e960 f   LIBCMT:strpbrk.obj
 0001:0006d9a0       _memcpy                    1006e9a0 f   LIBCMT:memcpy.obj
 0001:0006dcd5       ___crtLCMapStringW         1006ecd5 f   LIBCMT:w_map.obj
 0001:0006df0e       _iswctype                  1006ef0e f   LIBCMT:iswctype.obj
 0001:0006df60       ___crtCompareStringA       1006ef60 f   LIBCMT:a_cmp.obj
 0001:0006e208       __setmbcp                  1006f208 f   LIBCMT:mbctype.obj
 0001:0006e5e0       ___initmbctable            1006f5e0 f   LIBCMT:mbctype.obj
 0001:0006e5fc       ___crtsetenv               1006f5fc f   LIBCMT:setenv.obj
 0001:0006e842       ___crtMessageBoxA          1006f842 f   LIBCMT:crtmbox.obj
 0001:0006e8cb       ___addl                    1006f8cb f   LIBCMT:mantold.obj
 0001:0006e8ec       ___add_12                  1006f8ec f   LIBCMT:mantold.obj
 0001:0006e94a       ___shl_12                  1006f94a f   LIBCMT:mantold.obj
 0001:0006e978       ___shr_12                  1006f978 f   LIBCMT:mantold.obj
 0001:0006e9a5       ___mtold12                 1006f9a5 f   LIBCMT:mantold.obj
 0001:0006ea6c       _$I10_OUTPUT               1006fa6c f   LIBCMT:x10fout.obj
 0001:0006ecff       ___ld12mul                 1006fcff f   LIBCMT:tenpow.obj
 0001:0006ef1f       ___multtenpow12            1006ff1f f   LIBCMT:tenpow.obj
 0001:0006ef9b       __free_osfhnd              1006ff9b f   LIBCMT:osfinfo.obj
 0001:0006f01a       __get_osfhandle            1007001a f   LIBCMT:osfinfo.obj
 0001:0006f05c       __lock_fhandle             1007005c f   LIBCMT:osfinfo.obj
 0001:0006f0bb       __unlock_fhandle           100700bb f   LIBCMT:osfinfo.obj
 0001:0006f0dd       __fcloseall                100700dd f   LIBCMT:closeall.obj
 0001:0006f15e       __fflush_lk                1007015e f   LIBCMT:fflush.obj
 0001:0006f18c       __flush                    1007018c f   LIBCMT:fflush.obj
 0001:0006f1e8       __flushall                 100701e8 f   LIBCMT:fflush.obj
 0001:0006f295       __raise_exc                10070295 f   LIBCMT:fpexcept.obj
 0001:0006f548       __handle_exc               10070548 f   LIBCMT:fpexcept.obj
 0001:0006f75f       __set_errno                1007075f f   LIBCMT:fpexcept.obj
 0001:0006f787       __matherr                  10070787 f   LIBCMT:matherr.obj
 0001:0006f78a       __statfp                   1007078a f   LIBCMT:fpctrl.obj
 0001:0006f798       __clrfp                    10070798 f   LIBCMT:fpctrl.obj
 0001:0006f7a7       __ctrlfp                   100707a7 f   LIBCMT:fpctrl.obj
 0001:0006f7ca       __set_statfp               100707ca f   LIBCMT:fpctrl.obj
 0001:0006f820       ___crtGetStringTypeW       10070820 f   LIBCMT:w_str.obj
 0001:0006fa41       __ltoa                     10070a41 f   LIBCMT:xtoa.obj
 0001:0006fa41       _ltoa                      10070a41 f   LIBCMT:xtoa.obj
 0001:0006fa70       _stricmp                   10070a70 f   LIBCMT:stricmp.obj
 0001:0006fa70       __stricmp                  10070a70 f   LIBCMT:stricmp.obj
 0001:0006fa70       __strcmpi                  10070a70 f   LIBCMT:stricmp.obj
 0001:0006fb40       _strnicmp                  10070b40 f   LIBCMT:strnicmp.obj
 0001:0006fb40       __strnicmp                 10070b40 f   LIBCMT:strnicmp.obj
 0001:0006fc41       _realloc                   10070c41 f   LIBCMT:realloc.obj
 0001:0006fd79       __mbschr                   10070d79 f   LIBCMT:mbschr.obj
 0001:0006fe10       __strdup                   10070e10 f   LIBCMT:strdup.obj
 0001:0006fe3b       _fclose                    10070e3b f   LIBCMT:fclose.obj
 0001:0006fe6c       __fclose_lk                10070e6c f   LIBCMT:fclose.obj
 0001:0006feb8       __commit                   10070eb8 f   LIBCMT:commit.obj
 0001:0006ff4b       __close                    10070f4b f   LIBCMT:close.obj
 0001:0006ffa8       __close_lk                 10070fa8 f   LIBCMT:close.obj
 0001:0007002b       __freebuf                  1007102b f   LIBCMT:_freebuf.obj
 0001:00070060       _RtlUnwind@16              10071060 f   kernel32:KERNEL32.dll
 0001:00070066       _fcvt                      10071066 f   LIBCMT:fcvt.obj
 0001:00070066       __fcvt                     10071066 f   LIBCMT:fcvt.obj
 0001:00070099       __fpcvt                    10071099 f   LIBCMT:fcvt.obj
 0001:000700f6       __strlwr                   100710f6 f   LIBCMT:strlwr.obj
 0001:000700f6       _strlwr                    100710f6 f   LIBCMT:strlwr.obj
 0001:0007022a       __strupr                   1007122a f   LIBCMT:strupr.obj
 0001:0007022a       _strupr                    1007122a f   LIBCMT:strupr.obj
 0001:0007035e       ___dtoxmode                1007135e f   LIBCMT:stat.obj
 0001:00070416       _stat                      10071416 f   LIBCMT:stat.obj
 0001:00070416       __stat                     10071416 f   LIBCMT:stat.obj
 0001:00070750       _memicmp                   10071750 f   LIBCMT:memicmp.obj
 0001:00070750       __memicmp                  10071750 f   LIBCMT:memicmp.obj
 0001:00070841       __chdir                    10071841 f   LIBCMT:chdir.obj
 0001:00070841       _chdir                     10071841 f   LIBCMT:chdir.obj
 0001:000708c7       __mbsicmp                  100718c7 f   LIBCMT:mbsicmp.obj
 0001:00070a5c       __mbsrchr                  10071a5c f   LIBCMT:mbsrchr.obj
 0001:00070ace       __fullpath                 10071ace f   LIBCMT:fullpath.obj
 0001:00070b73       __mbctolower               10071b73 f   LIBCMT:mbtolwr.obj
 0001:00070bee       __mbspbrk                  10071bee f   LIBCMT:mbspbrk.obj
 0001:00070c83       __mbctoupper               10071c83 f   LIBCMT:mbtoupr.obj
 0002:00000000       __real@4@4002a000000000000000 10072000     c4.obj
 0002:00000004       __real@4@bfff8000000000000000 10072004     c4.obj
 0002:00000008       __real@4@401cee6b280000000000 10072008     c4.obj
 0002:00000010       __real@8@4004c000000000000000 10072010     c4.obj
 0002:00000018       __real@8@4002a000000000000000 10072018     c4.obj
 0002:00000020       __real@4@00000000000000000000 10072020     c4.obj
 0002:00000028       __real@8@3fff8000000000000000 10072028     c4.obj
 0002:00000030       __real@8@bfff8147ae147ae14800 10072030     D4CREATE.obj
 0002:00000038       __real@8@bff6b36e750df4083800 10072038     D4DATE.obj
 0002:00000040       __real@8@414b924d692ca61be800 10072040     D4DATE.obj
 0002:00000048       __real@8@3ff8a3d70a3d70a3d800 10072048     D4OPT.obj
 0002:00000050       __real@8@00000000000000000000 10072050     D4OPT.obj
 0002:00000058       __real@8@3ffc9999999999999800 10072058     D4OPT.obj
 0002:00000060       __real@8@3ffbccccccccccccd000 10072060     D4OPT.obj
 0002:00000068       __real@8@3ffd8000000000000000 10072068     D4OPT.obj
 0002:00000070       __real@8@3ffaccccccccccccd000 10072070     D4OPT.obj
 0002:00000078       __real@8@3ffef333333333333000 10072078     d4pack.obj
 0002:00000080       __real@8@3fff8cccccccccccd000 10072080     D4POSITI.obj
 0002:00000088       __real@8@bfff8000000000000000 10072088     D4POSITI.obj
 0002:00000090       __real@8@3fffc000000000000000 10072090     D4POSITI.obj
 0002:00000098       __real@8@c009b2c0000000000000 10072098     d4servex.obj
 0002:000000a0       __real@8@4008fa00000000000000 100720a0     d4serv2.obj
 0002:000000a8       ?v4functions@@3QBUE4FUNCTIONS@@B 100720a8     e4functi.obj
 0002:00000e40       __real@8@3ff68000000000000000 10072e40     i4check.obj
 0002:00000e48       __real@8@3fe4c6d750ebfa67b800 10072e48     i4conv.obj
 0002:00000e50       __real@8@3ffe8000000000000000 10072e50     I4POSITI.obj
 0002:00000e58       __real@8@3fff8020c49ba5e35000 10072e58     m4file.obj
 0002:00000e60       __real@8@3ff9ccccccccccccd000 10072e60     r4reinde.obj
 0002:00000e68       __real@8@3ffef999999999999800 10072e68     r4reinde.obj
 0002:00000e70       __real@8@3ffee666666666666800 10072e70     r4relate.obj
 0002:00000e78       __real@8@3ff783126e978d4fe000 10072e78     r4relate.obj
 0002:00000e80       __real@8@4006fa00000000000000 10072e80     r4relate.obj
 0002:00000ea8       __real@8@4015800bf60000000000 10072ea8     LIBCMT:testfdiv.obj
 0002:00000eb0       __real@8@4014bffffc0000000000 10072eb0     LIBCMT:testfdiv.obj
 0002:00000eb8       ??_C@_0BK@JEGK@IsProcessorFeaturePresent?$AA@ 10072eb8     LIBCMT:testfdiv.obj
 0002:00000ed4       ??_C@_08OBID@KERNEL32?$AA@ 10072ed4     LIBCMT:testfdiv.obj
 0002:00000ee0       ??_C@_05OFLO@e?$CL000?$AA@ 10072ee0     LIBCMT:cvt.obj
 0002:00000ee8       ___lookuptable             10072ee8     LIBCMT:output.obj
 0002:00000f44       ??_C@_1O@POHA@?$AA?$CI?$AAn?$AAu?$AAl?$AAl?$AA?$CJ?$AA?$AA@ 10072f44     LIBCMT:output.obj
 0002:00000f54       ??_C@_06ONKE@?$CInull?$CJ?$AA@ 10072f54     LIBCMT:output.obj
 0002:00000f68       __DEFAULT_CW_in_mem        10072f68     LIBCMT:common.obj
 0002:00000f6a       __pi_by_2_to_61            10072f6a     LIBCMT:common.obj
 0002:00000fa8       __real@8@40008000000000000000 10072fa8     LIBCMT:powhlp.obj
 0002:00000fb0       ??_C@_13A@?$AA?$AA?$AA?$AA@ 10072fb0     LIBCMT:a_map.obj
 0002:00000fd0       ??_C@_0P@GGKG@runtime?5error?5?$AA@ 10072fd0     LIBCMT:crt0msg.obj
 0002:00000fe0       ??_C@_0O@DELO@TLOSS?5error?$AN?6?$AA@ 10072fe0     LIBCMT:crt0msg.obj
 0002:00000ff0       ??_C@_0N@OMLL@SING?5error?$AN?6?$AA@ 10072ff0     LIBCMT:crt0msg.obj
 0002:00001000       ??_C@_0P@OJAK@DOMAIN?5error?$AN?6?$AA@ 10073000     LIBCMT:crt0msg.obj
 0002:00001010       ??_C@_0CF@EANP@R6028?$AN?6?9?5unable?5to?5initialize?5he@ 10073010     LIBCMT:crt0msg.obj
 0002:00001038       ??_C@_0DF@ECGN@R6027?$AN?6?9?5not?5enough?5space?5for?5lo@ 10073038     LIBCMT:crt0msg.obj
 0002:00001070       ??_C@_0DF@FKAC@R6026?$AN?6?9?5not?5enough?5space?5for?5st@ 10073070     LIBCMT:crt0msg.obj
 0002:000010a8       ??_C@_0CG@DPMN@R6025?$AN?6?9?5pure?5virtual?5function?5c@ 100730a8     LIBCMT:crt0msg.obj
 0002:000010d0       ??_C@_0DF@CKIP@R6024?$AN?6?9?5not?5enough?5space?5for?5_o@ 100730d0     LIBCMT:crt0msg.obj
 0002:00001108       ??_C@_0CJ@GGOE@R6019?$AN?6?9?5unable?5to?5open?5console?5@ 10073108     LIBCMT:crt0msg.obj
 0002:00001134       ??_C@_0CB@LBOB@R6018?$AN?6?9?5unexpected?5heap?5error?$AN?6@ 10073134     LIBCMT:crt0msg.obj
 0002:00001158       ??_C@_0CN@FPEG@R6017?$AN?6?9?5unexpected?5multithread?5@ 10073158     LIBCMT:crt0msg.obj
 0002:00001188       ??_C@_0CM@OBIC@R6016?$AN?6?9?5not?5enough?5space?5for?5th@ 10073188     LIBCMT:crt0msg.obj
 0002:000011b4       ??_C@_0CB@HPAL@?$AN?6abnormal?5program?5termination?$AN?6@ 100731b4     LIBCMT:crt0msg.obj
 0002:000011d8       ??_C@_0CM@JOOB@R6009?$AN?6?9?5not?5enough?5space?5for?5en@ 100731d8     LIBCMT:crt0msg.obj
 0002:00001204       ??_C@_0CK@OIBL@R6008?$AN?6?9?5not?5enough?5space?5for?5ar@ 10073204     LIBCMT:crt0msg.obj
 0002:00001230       ??_C@_0CF@LKPB@R6002?$AN?6?9?5floating?5point?5not?5load@ 10073230     LIBCMT:crt0msg.obj
 0002:00001258       ??_C@_0CF@JPDF@Microsoft?5Visual?5C?$CL?$CL?5Runtime?5Lib@ 10073258     LIBCMT:crt0msg.obj
 0002:00001280       ??_C@_02JJJH@?6?6?$AA@     10073280     LIBCMT:crt0msg.obj
 0002:00001284       ??_C@_0BK@DEOK@Runtime?5Error?$CB?6?6Program?3?5?$AA@ 10073284     LIBCMT:crt0msg.obj
 0002:000012a0       ??_C@_03NAME@?4?4?4?$AA@   100732a0     LIBCMT:crt0msg.obj
 0002:000012a4       ??_C@_0BH@NNCD@?$DMprogram?5name?5unknown?$DO?$AA@ 100732a4     LIBCMT:crt0msg.obj
 0002:000012cc       ___dnames                  100732cc     LIBCMT:timeset.obj
 0002:000012e4       ___mnames                  100732e4     LIBCMT:timeset.obj
 0002:0000130c       ??_C@_02JHIA@TZ?$AA@       1007330c     LIBCMT:tzset.obj
 0002:00001340       ??_C@_0BD@NJFP@GetLastActivePopup?$AA@ 10073340     LIBCMT:crtmbox.obj
 0002:00001354       ??_C@_0BA@GILI@GetActiveWindow?$AA@ 10073354     LIBCMT:crtmbox.obj
 0002:00001364       ??_C@_0M@PKCK@MessageBoxA?$AA@ 10073364     LIBCMT:crtmbox.obj
 0002:00001370       ??_C@_0L@HKL@user32?4dll?$AA@ 10073370     LIBCMT:crtmbox.obj
 0002:0000137c       ??_C@_06PAPI@1?$CDQNAN?$AA@ 1007337c     LIBCMT:x10fout.obj
 0002:00001384       ??_C@_05BGNL@1?$CDINF?$AA@ 10073384     LIBCMT:x10fout.obj
 0002:0000138c       ??_C@_05EDPF@1?$CDIND?$AA@ 1007338c     LIBCMT:x10fout.obj
 0002:00001394       ??_C@_06LKFM@1?$CDSNAN?$AA@ 10073394     LIBCMT:x10fout.obj
 0002:0000139c       ??_C@_03GAFO@_yn?$AA@      1007339c     LIBCMT:fpexcept.obj
 0002:000013a0       ??_C@_03GNLD@_y1?$AA@      100733a0     LIBCMT:fpexcept.obj
 0002:000013a4       ??_C@_03MHCE@_y0?$AA@      100733a4     LIBCMT:fpexcept.obj
 0002:000013a8       ??_C@_05PAK@frexp?$AA@     100733a8     LIBCMT:fpexcept.obj
 0002:000013b0       ??_C@_04JKCH@fmod?$AA@     100733b0     LIBCMT:fpexcept.obj
 0002:000013b8       ??_C@_06GGHF@_hypot?$AA@   100733b8     LIBCMT:fpexcept.obj
 0002:000013c0       ??_C@_05JNMC@_cabs?$AA@    100733c0     LIBCMT:fpexcept.obj
 0002:000013c8       ??_C@_05MEKH@ldexp?$AA@    100733c8     LIBCMT:fpexcept.obj
 0002:000013d0       ??_C@_04KAOJ@modf?$AA@     100733d0     LIBCMT:fpexcept.obj
 0002:000013d8       ??_C@_04EHAJ@fabs?$AA@     100733d8     LIBCMT:fpexcept.obj
 0002:000013e0       ??_C@_05MFBN@floor?$AA@    100733e0     LIBCMT:fpexcept.obj
 0002:000013e8       ??_C@_04JJMP@ceil?$AA@     100733e8     LIBCMT:fpexcept.obj
 0002:000013f0       ??_C@_03JLPI@tan?$AA@      100733f0     LIBCMT:fpexcept.obj
 0002:000013f4       ??_C@_03DLFL@cos?$AA@      100733f4     LIBCMT:fpexcept.obj
 0002:000013f8       ??_C@_03JAMN@sin?$AA@      100733f8     LIBCMT:fpexcept.obj
 0002:000013fc       ??_C@_04LMBE@sqrt?$AA@     100733fc     LIBCMT:fpexcept.obj
 0002:00001404       ??_C@_05BFPO@atan2?$AA@    10073404     LIBCMT:fpexcept.obj
 0002:0000140c       ??_C@_04EAGN@atan?$AA@     1007340c     LIBCMT:fpexcept.obj
 0002:00001414       ??_C@_04OAMO@acos?$AA@     10073414     LIBCMT:fpexcept.obj
 0002:0000141c       ??_C@_04ELFI@asin?$AA@     1007341c     LIBCMT:fpexcept.obj
 0002:00001424       ??_C@_04LFAD@tanh?$AA@     10073424     LIBCMT:fpexcept.obj
 0002:0000142c       ??_C@_04PFKD@cosh?$AA@     1007342c     LIBCMT:fpexcept.obj
 0002:00001434       ??_C@_04NPAI@sinh?$AA@     10073434     LIBCMT:fpexcept.obj
 0002:0000143c       ??_C@_05IJHH@log10?$AA@    1007343c     LIBCMT:fpexcept.obj
 0002:00001444       ??_C@_03EGFG@pow?$AA@      10073444     LIBCMT:fpexcept.obj
 0002:00001448       ??_C@_03CDGJ@exp?$AA@      10073448     LIBCMT:fpexcept.obj
 0002:0000144c       ??_C@_07CJME@H?3mm?3ss?$AA@ 1007344c     LIBCMT:strftime.obj
 0002:00001454       ??_C@_0BE@MHI@dddd?0?5MMMM?5dd?0?5yyyy?$AA@ 10073454     LIBCMT:strftime.obj
 0002:00001468       ??_C@_06HCAD@M?1d?1yy?$AA@ 10073468     LIBCMT:strftime.obj
 0002:00001470       ??_C@_02DBLP@PM?$AA@       10073470     LIBCMT:strftime.obj
 0002:00001474       ??_C@_02ENLM@AM?$AA@       10073474     LIBCMT:strftime.obj
 0002:00001478       ??_C@_08LIDF@December?$AA@ 10073478     LIBCMT:strftime.obj
 0002:00001484       ??_C@_08NJLI@November?$AA@ 10073484     LIBCMT:strftime.obj
 0002:00001490       ??_C@_07IAMM@October?$AA@  10073490     LIBCMT:strftime.obj
 0002:00001498       ??_C@_09MKGD@September?$AA@ 10073498     LIBCMT:strftime.obj
 0002:000014a4       ??_C@_06PADP@August?$AA@   100734a4     LIBCMT:strftime.obj
 0002:000014ac       ??_C@_04PIJO@July?$AA@     100734ac     LIBCMT:strftime.obj
 0002:000014b4       ??_C@_04ICFP@June?$AA@     100734b4     LIBCMT:strftime.obj
 0002:000014bc       ??_C@_05JFGC@April?$AA@    100734bc     LIBCMT:strftime.obj
 0002:000014c4       ??_C@_05FGPD@March?$AA@    100734c4     LIBCMT:strftime.obj
 0002:000014cc       ??_C@_08PGBA@February?$AA@ 100734cc     LIBCMT:strftime.obj
 0002:000014d8       ??_C@_07BPKJ@January?$AA@  100734d8     LIBCMT:strftime.obj
 0002:000014e0       ??_C@_03PGJO@Dec?$AA@      100734e0     LIBCMT:strftime.obj
 0002:000014e4       ??_C@_03PDLM@Nov?$AA@      100734e4     LIBCMT:strftime.obj
 0002:000014e8       ??_C@_03BLHK@Oct?$AA@      100734e8     LIBCMT:strftime.obj
 0002:000014ec       ??_C@_03DPFM@Sep?$AA@      100734ec     LIBCMT:strftime.obj
 0002:000014f0       ??_C@_03CMCH@Aug?$AA@      100734f0     LIBCMT:strftime.obj
 0002:000014f4       ??_C@_03OBKI@Jul?$AA@      100734f4     LIBCMT:strftime.obj
 0002:000014f8       ??_C@_03LEIG@Jun?$AA@      100734f8     LIBCMT:strftime.obj
 0002:000014fc       ??_C@_03MGHB@May?$AA@      100734fc     LIBCMT:strftime.obj
 0002:00001500       ??_C@_03MJJM@Apr?$AA@      10073500     LIBCMT:strftime.obj
 0002:00001504       ??_C@_03GNHA@Mar?$AA@      10073504     LIBCMT:strftime.obj
 0002:00001508       ??_C@_03PICE@Feb?$AA@      10073508     LIBCMT:strftime.obj
 0002:0000150c       ??_C@_03IEIF@Jan?$AA@      1007350c     LIBCMT:strftime.obj
 0002:00001510       ??_C@_08FAKH@Saturday?$AA@ 10073510     LIBCMT:strftime.obj
 0002:0000151c       ??_C@_06ONCK@Friday?$AA@   1007351c     LIBCMT:strftime.obj
 0002:00001524       ??_C@_08CCFO@Thursday?$AA@ 10073524     LIBCMT:strftime.obj
 0002:00001530       ??_C@_09PBIN@Wednesday?$AA@ 10073530     LIBCMT:strftime.obj
 0002:0000153c       ??_C@_07BMBC@Tuesday?$AA@  1007353c     LIBCMT:strftime.obj
 0002:00001544       ??_C@_06CHLK@Monday?$AA@   10073544     LIBCMT:strftime.obj
 0002:0000154c       ??_C@_06OOEM@Sunday?$AA@   1007354c     LIBCMT:strftime.obj
 0002:00001554       ??_C@_03MPKK@Sat?$AA@      10073554     LIBCMT:strftime.obj
 0002:00001558       ??_C@_03FINJ@Fri?$AA@      10073558     LIBCMT:strftime.obj
 0002:0000155c       ??_C@_03HIKC@Thu?$AA@      1007355c     LIBCMT:strftime.obj
 0002:00001560       ??_C@_03HECK@Wed?$AA@      10073560     LIBCMT:strftime.obj
 0002:00001564       ??_C@_03ECCP@Tue?$AA@      10073564     LIBCMT:strftime.obj
 0002:00001568       ??_C@_03PIEP@Mon?$AA@      10073568     LIBCMT:strftime.obj
 0002:0000156c       ??_C@_03FHEP@Sun?$AA@      1007356c     LIBCMT:strftime.obj
 0002:00001588       ??_C@_04GGNP@?4com?$AA@    10073588     LIBCMT:stat.obj
 0002:00001590       ??_C@_04KBDN@?4bat?$AA@    10073590     LIBCMT:stat.obj
 0002:00001598       ??_C@_04LFKF@?4cmd?$AA@    10073598     LIBCMT:stat.obj
 0002:000015a0       ??_C@_04NFOM@?4exe?$AA@    100735a0     LIBCMT:stat.obj
 0002:000015a8       ??_C@_03MNBA@?4?1?2?$AA@   100735a8     LIBCMT:stat.obj
 0002:000015ac       ??_C@_02DIIM@?$DP?$CK?$AA@ 100735ac     LIBCMT:stat.obj
 0003:00000000       ___xc_a                    10078000     LIBCMT:crt0init.obj
 0003:00000008       ___xc_z                    10078008     LIBCMT:crt0init.obj
 0003:0000000c       ___xi_a                    1007800c     LIBCMT:crt0init.obj
 0003:0000001c       ___xi_z                    1007801c     LIBCMT:crt0init.obj
 0003:00000020       ___xp_a                    10078020     LIBCMT:crt0init.obj
 0003:00000028       ___xp_z                    10078028     LIBCMT:crt0init.obj
 0003:0000002c       ___xt_a                    1007802c     LIBCMT:crt0init.obj
 0003:00000030       ___xt_z                    10078030     LIBCMT:crt0init.obj
 0003:000000f0       ??_C@_08FEIM@PDELETED?$AA@ 100780f0     b4block.obj
 0003:000000fc       ??_C@_0N@FLGO@UPPER?$CITABLE?$CJ?$AA@ 100780fc     b4block.obj
 0003:0000010c       ??_C@_05DLJE@TABLE?$AA@    1007810c     b4block.obj
 0003:00000114       ??_C@_0DA@FEGJ@UPPER?$CISUBSTR?$CITRIM?$CIPATH?$CJ?$CL?8?2?8?$CLTRIM@ 10078114     b4block.obj
 0003:00000144       ??_C@_08IPIA@PATH_TBL?$AA@ 10078144     b4block.obj
 0003:00000150       ??_C@_0EE@GEAE@UPPER?$CITRIM?$CIACCOUNTID?$CJ?$CL?8?0?8?$CLSUBSTR@ 10078150     b4block.obj
 0003:00000194       ??_C@_08CDMI@ACCTQPTH?$AA@ 10078194     b4block.obj
 0003:000001a0       ??_C@_07EAOK@ACCOUNT?$AA@  100781a0     b4block.obj
 0003:000001a8       ??_C@_0EG@JILI@UPPER?$CIACCOUNTID?$CJ?5?$CL?5UPPER?$CI?5SUBSTR@ 100781a8     b4block.obj
 0003:000001f0       ??_C@_08BDKB@PRIVILEG?$AA@ 100781f0     b4block.obj
 0003:000001fc       ??_C@_09FGJC@DELETED?$CI?$CJ?$AA@ 100781fc     b4block.obj
 0003:00000208       ??_C@_07JFEF@RECNO?$CI?$CJ?$AA@ 10078208     b4block.obj
 0003:00000210       ??_C@_07NNMA@DELETED?$AA@  10078210     b4block.obj
 0003:00000218       ??_C@_0BK@OEPF@UPPER?$CIACCOUNTID?$CJ?$CLPASSWORD?$AA@ 10078218     b4block.obj
 0003:00000234       ??_C@_08IAOF@NAMEPASS?$AA@ 10078234     b4block.obj
 0003:00000240       ??_C@_0P@LLCN@?4NOT?4DELETED?$CI?$CJ?$AA@ 10078240     b4block.obj
 0003:00000250       ??_C@_0BB@LKDJ@UPPER?$CIACCOUNTID?$CJ?$AA@ 10078250     b4block.obj
 0003:00000264       ??_C@_04IALP@NAME?$AA@     10078264     b4block.obj
 0003:0000026c       ??_C@_0M@EOOA@?92147483648?$AA@ 1007826c     c4.obj
 0003:00000278       ??_C@_0L@LNG@2147483648?$AA@ 10078278     c4.obj
 0003:00000288       ?largeStamp@@3UC4STAMP@@A  10078288     C4CODE.obj
 0003:00000320       ??_C@_07ENCB@IS_TEMP?$AA@  10078320     C4CODE.obj
 0003:00000328       ??_C@_0L@KIFL@OPEN_COUNT?$AA@ 10078328     C4CODE.obj
 0003:00000334       ??_C@_0BA@BEEF@UPPER?$CIFULLNAME?$CJ?$AA@ 10078334     C4CODE.obj
 0003:00000344       ??_C@_08PIGP@FULLNAME?$AA@ 10078344     C4CODE.obj
 0003:00000350       ??_C@_0BI@JHK@Header?5struct?5size?3?5?$CFld?$AA@ 10078350     C4CODE.obj
 0003:00000368       ??_C@_0BJ@ICBC@Library?5struct?5size?3?5?$CFld?$AA@ 10078368     C4CODE.obj
 0003:00000384       ??_C@_0N@BHOI@Headers?3?5?$CFld?$AA@ 10078384     C4CODE.obj
 0003:00000394       ??_C@_0N@MBIM@Library?3?5?$CFld?$AA@ 10078394     C4CODE.obj
 0003:000003a4       ??_C@_03NFNF@dbf?$AA@      100783a4     C4CODE.obj
 0003:000003a8       ??_C@_0DE@MBOM@code4largeOn?5not?5supported?5with?5@ 100783a8     C4CODE.obj
 0003:000003dc       ??_C@_03BOPB@cdx?$AA@      100783dc     C4CODE.obj
 0003:000003e0       ??_C@_03GCDD@mdx?$AA@      100783e0     C4CODE.obj
 0003:000003e4       ??_C@_03POKB@ntx?$AA@      100783e4     C4CODE.obj
 0003:000003e8       ??_C@_03MKFK@fpt?$AA@      100783e8     C4CODE.obj
 0003:000003ec       ??_C@_03CJIL@dbt?$AA@      100783ec     C4CODE.obj
 0003:000003f0       ??_C@_06OLCN@VALID4?$AA@   100783f0     C4CODE.obj
 0003:000003f8       ??_C@_0BE@JMKE@AdditionalFunctions?$AA@ 100783f8     C4CODE.obj
 0003:0000040c       ??_C@_09PPCP@CBADD?4DLL?$AA@ 1007840c     C4CODE.obj
 0003:00000418       ??_C@_0L@FCAJ@ENCRYPTLEV?$AA@ 10078418     C4CODE.obj
 0003:00000424       ??_C@_0CD@GBME@Missing?5function?5in?5encryption?5d@ 10078424     C4CODE.obj
 0003:00000448       ??_C@_0BE@CONE@file4preprocessDone?$AA@ 10078448     C4CODE.obj
 0003:0000045c       ??_C@_0BA@EMEI@file4preprocess?$AA@ 1007845c     C4CODE.obj
 0003:0000046c       ??_C@_0BE@PBBN@encrypt4decryptHook?$AA@ 1007846c     C4CODE.obj
 0003:00000480       ??_C@_0BI@LBGM@encrypt4encryptFileHook?$AA@ 10078480     C4CODE.obj
 0003:00000498       ??_C@_0BH@HEEF@code4setEncryptFileLow?$AA@ 10078498     C4CODE.obj
 0003:000004b0       ??_C@_0BM@ODML@code4encryptFileInitUndoLow?$AA@ 100784b0     C4CODE.obj
 0003:000004cc       ??_C@_0BH@CKNL@code4encryptFileGetLow?$AA@ 100784cc     C4CODE.obj
 0003:000004e4       ??_C@_0BE@PKEL@code4encryptFileSet?$AA@ 100784e4     C4CODE.obj
 0003:000004f8       ??_C@_0BG@PED@server4initPreprocess?$AA@ 100784f8     C4CODE.obj
 0003:00000510       ??_C@_0BO@LBCN@Unable?5to?5load?5encryption?5dll?$AA@ 10078510     C4CODE.obj
 0003:00000530       ??_C@_0O@BJHI@encrypt4s?4dll?$AA@ 10078530     C4CODE.obj
 0003:00000540       ??_C@_0O@OCPJ@encrypt8s?4dll?$AA@ 10078540     C4CODE.obj
 0003:00000550       ??_C@_0EG@DNIP@encryption?5num?5bits?5set?5to?5inval@ 10078550     C4CODE.obj
 0003:00000598       ??_C@_0DM@BIBG@EA0050?3Connect4bufferInit?0?5c4?5wa@ 10078598     c4buffer.obj
 0003:000005d4       ??_C@_0EA@MPGM@EA0101?3Connect4bufferInitRead?0?5f@ 100785d4     c4buffer.obj
 0003:00000614       ??_C@_0EI@PDOL@EA0100?3Connect4bufferInitRead?0?5c@ 10078614     c4buffer.obj
 0003:0000065c       ??_C@_0FN@KCP@Failure?5in?5decompressing?5communi@ 1007865c     c4buffer.obj
 0003:000006bc       ??_C@_0BE@GCLG@Windows?5ErrorNumber?$AA@ 100786bc     c4buffer.obj
 0003:000006d0       ??_C@_0KC@DLLI@EA0051?3?$FLClient?5application?5likel@ 100786d0     c4buffer.obj
 0003:00000774       ??_C@_0CO@LFIK@EC0080?3connect4bufferInit?$CI?$CJ?5fail@ 10078774     C4CONECT.obj
 0003:000007a4       ??_C@_0CA@HIMN@unknown?5network?5error?3?5Number?3?5?$AA@ 100787a4     c4conlow.obj
 0003:000007c4       ??_C@_0EK@PFFO@EA0003?3Failure?5to?5initialize?5sem@ 100787c4     C4THREAD.obj
 0003:00000810       ??_C@_0FJ@GADC@EA0002?3Failure?5to?5initialize?5sem@ 10078810     C4THREAD.obj
 0003:0000086c       ??_C@_0FJ@KAFP@EA0001?3Failure?5to?5initialize?5sem@ 1007886c     C4THREAD.obj
 0003:000008c8       ??_C@_0EO@ELBI@IA0001?3Connection?5on?5ReadComplet@ 100788c8     C4THREAD.obj
 0003:00000918       ??_C@_0EN@MCNL@EA0030?3GetOverlappedResult?5recei@ 10078918     C4THREAD.obj
 0003:00000968       ??_C@_0GP@HFPI@EA0021?3GetOverlappedResult?5resul@ 10078968     C4THREAD.obj
 0003:000009d8       ??_C@_0FG@GIND@WA0022?3GetOverlappedResult?5unexp@ 100789d8     C4THREAD.obj
 0003:00000a30       ??_C@_0GM@MJFM@WA0020?3GetOverlappedResult?5recei@ 10078a30     C4THREAD.obj
 0003:00000a9c       ??_C@_0FF@BKHL@IA0045?3Resetting?5numFails?5for?5co@ 10078a9c     C4THREAD.obj
 0003:00000af4       ??_C@_0IO@DMGI@WA0043?3Server?5GetOverlappedResul@ 10078af4     C4THREAD.obj
 0003:00000b84       ??_C@_0JA@OJEP@WA0041?3?$FLpossibly?5client?5abnormal@ 10078b84     C4THREAD.obj
 0003:00000c14       ??_C@_0JA@MNOE@WA0042?3Server?5GetOverlappedResul@ 10078c14     C4THREAD.obj
 0003:00000ca4       ??_C@_0DB@BPPD@?5erroring?5due?5to?5exceeding?5maxim@ 10078ca4     C4THREAD.obj
 0003:00000cd8       ??_C@_0IN@BPIE@WA0041?3?$FLpossibly?5client?5abnormal@ 10078cd8     C4THREAD.obj
 0003:00000d68       ??_C@_0HD@NPME@WA0040?3GetOverlappedResult?5recei@ 10078d68     C4THREAD.obj
 0003:00000ddc       ??_C@_0FP@LHBL@IS0060?3Server?5is?5performing?5a?5no@ 10078ddc     c4com.obj
 0003:00000e44       ??_C@_03BGKD@log?$AA@      10078e44     c4trans.obj
 0003:00000e48       ??_C@_0CB@HIBE@Unable?5to?5create?5new?5record?5file@ 10078e48     c4trans.obj
 0003:00000e6c       ??_C@_0P@ICGI@NEW_RECORD?4FIL?$AA@ 10078e6c     c4trans.obj
 0003:00000e7c       ??_C@_0CB@PNAG@Unable?5to?5create?5old?5record?5file@ 10078e7c     c4trans.obj
 0003:00000ea0       ??_C@_0P@JAKM@OLD_RECORD?4FIL?$AA@ 10078ea0     c4trans.obj
 0003:00000eb0       ??_C@_0CM@EBJM@append?5bytes?5were?5not?5locked?5for@ 10078eb0     c4trans.obj
 0003:00000edc       ??_C@_0DL@OLNH@there?5are?5locks?5on?5the?5append?5by@ 10078edc     c4trans.obj
 0003:00000f18       ??_C@_0EH@FNMH@failure?5to?5lock?5record?5to?5comple@ 10078f18     c4trans.obj
 0003:00000f60       ??_C@_0BL@DNOO@unable?5to?5lock?5record?3?5?$CFld?$AA@ 10078f60     c4trans.obj
 0003:00000f7c       ??_C@_0KC@EGEC@ASCEND?$CILOCKTYPE?$CJ?5?$CL?5ASCEND?$CILOCKRE@ 10078f7c     c4util.obj
 0003:00001020       ??_C@_08PHMH@LOCK_LCT?$AA@ 10079020     c4util.obj
 0003:0000102c       ??_C@_0KC@PKIN@ASCEND?$CILOCKTYPE?$CJ?5?$CL?5ASCEND?$CILOCKRE@ 1007902c     c4util.obj
 0003:000010d0       ??_C@_08KO@LOCK_LTC?$AA@   100790d0     c4util.obj
 0003:000010dc       ??_C@_0KC@NHNA@IIF?$CIWINLOG_ID?5?$DN?5?8?5?5?5?8?0UPPER?$CIACCO@ 100790dc     c4util.obj
 0003:00001180       ??_C@_08NBC@LOCK_CLT?$AA@  10079180     c4util.obj
 0003:0000118c       ??_C@_0KC@DMEF@IIF?$CIWINLOG_ID?5?$DN?5?8?5?5?5?8?0UPPER?$CIACCO@ 1007918c     c4util.obj
 0003:00001230       ??_C@_08CPCH@LOCK_CTL?$AA@ 10079230     c4util.obj
 0003:0000123c       ??_C@_0KC@KNCF@TRIM?$CILEFT?$CIPATH?0125?$CJ?$CJ?5?$CL?5TABLE?5?$CL?5A@ 1007923c     c4util.obj
 0003:000012e0       ??_C@_08GOIM@LOCK_TLC?$AA@ 100792e0     c4util.obj
 0003:000012ec       ??_C@_0KC@JKDC@TRIM?$CILEFT?$CIPATH?0125?$CJ?$CJ?5?$CL?5TABLE?5?$CL?5I@ 100792ec     c4util.obj
 0003:00001390       ??_C@_08LLNA@LOCK_TCL?$AA@ 10079390     c4util.obj
 0003:0000139c       ??_C@_0HL@FJJL@TRIM?$CILEFT?$CIPATH?0125?$CJ?$CJ?5?$CL?5TABLE?5?$CL?5I@ 1007939c     c4util.obj
 0003:00001418       ??_C@_07HIBM@TABLE_C?$AA@  10079418     c4util.obj
 0003:00001420       ??_C@_0DF@HFED@LEFT?$CIACCOUNT_ID?01?$CJ?5?$DM?$DO?5?8?5?8?5?4AND?4?5@ 10079420     c4util.obj
 0003:00001458       ??_C@_0BN@JMJJ@TRIM?$CILEFT?$CIPATH?0200?$CJ?$CJ?5?$CL?5TABLE?$AA@ 10079458     c4util.obj
 0003:00001478       ??_C@_08KNIG@TABLETAG?$AA@ 10079478     c4util.obj
 0003:00001484       ??_C@_0HL@MJJL@IIF?$CIWINLOG_ID?5?$DN?5?8?5?5?5?8?0UPPER?$CIACCO@ 10079484     c4util.obj
 0003:00001500       ??_C@_08BANG@CONNECTT?$AA@ 10079500     c4util.obj
 0003:0000150c       ??_C@_0FM@HKPD@IIF?$CIWINLOG_ID?5?$DN?5?8?5?5?5?8?0UPPER?$CIACCO@ 1007950c     c4util.obj
 0003:00001568       ??_C@_07DKLG@CONNECT?$AA@  10079568     c4util.obj
 0003:00001570       ??_C@_0CM@NEON@ACCOUNT_ID?5?$DM?$DO?5?8?5?5?5?8?5?4OR?4?5WINLOG_@ 10079570     c4util.obj
 0003:0000159c       ??_C@_0FN@JNFF@LEFT?$CITABLE?01?$CJ?5?$DM?$DO?5?8?5?8?5?4AND?4?5LOCKT@ 1007959c     c4util.obj
 0003:000015fc       ??_C@_09IGJK@LOCKRECNO?$AA@ 100795fc     c4util.obj
 0003:00001608       ??_C@_08NLDG@LOCKTYPE?$AA@ 10079608     c4util.obj
 0003:00001614       ??_C@_0L@BOAO@ACCESSMODE?$AA@ 10079614     c4util.obj
 0003:00001620       ??_C@_09EEIK@READ_ONLY?$AA@ 10079620     c4util.obj
 0003:0000162c       ??_C@_09GGAG@REC_WIDTH?$AA@ 1007962c     c4util.obj
 0003:00001638       ??_C@_09KOGK@NUMFIELDS?$AA@ 10079638     c4util.obj
 0003:00001644       ??_C@_08ODKN@RECCOUNT?$AA@ 10079644     c4util.obj
 0003:00001650       ??_C@_08GJPG@FILETYPE?$AA@ 10079650     c4util.obj
 0003:0000165c       ??_C@_04LNMG@PATH?$AA@     1007965c     c4util.obj
 0003:00001664       ??_C@_0L@DJMF@CONNECT_ID?$AA@ 10079664     c4util.obj
 0003:00001670       ??_C@_0L@IOIJ@TCPADDRESS?$AA@ 10079670     c4util.obj
 0003:0000167c       ??_C@_09BENC@WINLOG_ID?$AA@ 1007967c     c4util.obj
 0003:00001688       ??_C@_0L@EBMN@ACCOUNT_ID?$AA@ 10079688     c4util.obj
 0003:00001694       ??_C@_01FCOA@?5?$AA@       10079694     D4APPEND.obj
 0003:00001698       ??_C@_02MECO@?$CFd?$AA@    10079698     D4CREATE.obj
 0003:0000169c       ??_C@_09DAJF@?$CFd?5?$CI?8?$CFc?8?$CJ?$AA@ 1007969c     D4CREATE.obj
 0003:000016a8       ??_C@_0L@IAG@_NullFlags?$AA@ 100796a8     D4CREATE.obj
 0003:000016b4       ??_C@_02FBLC@?$AN?$BK?$AA@ 100796b4     D4CREATE.obj
 0003:000016b8       ??_C@_0EA@GKOM@Compressed?5of?5a?5table?5with?5no?5re@ 100796b8     D4CREATE.obj
 0003:000016f8       ??_C@_0DE@ENDG@Exceeded?5d4compress?$CI?$CJ?5large?5file@ 100796f8     D4CREATE.obj
 0003:0000172c       ??_C@_0DL@MBAG@invalid?5flags?5paramater?5settig?5b@ 1007972c     d4data.obj
 0003:00001884       ??_C@_02IHLC@?5?5?$AA@     10079884     D4DATE.obj
 0003:00001888       ??_C@_08JLGL@CCYYMMDD?$AA@ 10079888     D4DATE.obj
 0003:00001894       ??_C@_02OOPM@01?$AA@       10079894     D4DATE.obj
 0003:00001898       ??_C@_08ION@?5?5?5?5?5?5?5?5?$AA@ 10079898     D4DATE.obj
 0003:000018a4       ??_C@_08IMJL@00000000?$AA@ 100798a4     D4DATE.obj
 0003:000018b0       ?StampedlicenceString@@3PADA 100798b0     d4main.obj
 0003:000019c0       ?UnStampedString@@3PADA    100799c0     d4main.obj
 0003:00001ab8       ?configFields@@3PAUFIELD4INFO@@A 10079ab8     d4main.obj
 0003:00001adc       ??_C@_06EOCN@SERIAL?$AA@   10079adc     d4main.obj
 0003:00001ae4       ??_C@_0BJ@NNKC@CodeBase?5Database?5Server?$AA@ 10079ae4     d4main.obj
 0003:00001b00       ??_C@_0M@KAKF@ICON_SERVER?$AA@ 10079b00     d4main.obj
 0003:00001b0c       ??_C@_0L@DLIK@TestWClass?$AA@ 10079b0c     d4main.obj
 0003:00001b18       ??_C@_09JLLD@MENU_MAIN?$AA@ 10079b18     d4main.obj
 0003:00001b24       ??_C@_04LKDK@Exit?$AA@     10079b24     d4main.obj
 0003:00001b2c       ??_C@_05JIMF@Close?$AA@    10079b2c     d4main.obj
 0003:00001b34       ??_C@_06GACA@BUTTON?$AA@   10079b34     d4main.obj
 0003:00001b3c       ??_C@_0BE@JFNL@Start?5Administrator?$AA@ 10079b3c     d4main.obj
 0003:00001b50       ??_C@_0M@PHFG@Data?5Locks?3?$AA@ 10079b50     d4main.obj
 0003:00001b5c       ??_C@_07LKPG@Tables?3?$AA@ 10079b5c     d4main.obj
 0003:00001b64       ??_C@_0N@LCPC@Connections?3?$AA@ 10079b64     d4main.obj
 0003:00001b74       ??_C@_0O@ECLN@Transactions?3?$AA@ 10079b74     d4main.obj
 0003:00001b84       ??_C@_06MGKN@Users?3?$AA@  10079b84     d4main.obj
 0003:00001b8c       ??_C@_06DIAM@Failed?$AA@   10079b8c     d4main.obj
 0003:00001b94       ??_C@_09PAOJ@Succeeded?$AA@ 10079b94     d4main.obj
 0003:00001ba0       ??_C@_07KJDJ@Current?$AA@  10079ba0     d4main.obj
 0003:00001ba8       ??_C@_0BJ@LLMP@Backup?5Computer?5Logging?3?$AA@ 10079ba8     d4main.obj
 0003:00001bc4       ??_C@_0L@POPO@Max?5Users?3?$AA@ 10079bc4     d4main.obj
 0003:00001bd0       ??_C@_0P@KLNP@Serial?5Number?3?$AA@ 10079bd0     d4main.obj
 0003:00001be0       ??_C@_0P@LFJ@Registered?5To?3?$AA@ 10079be0     d4main.obj
 0003:00001bf0       ??_C@_0BB@KBEF@User?5Information?$AA@ 10079bf0     d4main.obj
 0003:00001c04       ??_C@_06MJBA@STATIC?$AA@   10079c04     d4main.obj
 0003:00001c0c       ??_C@_0BA@GIAO@Server?5Up?5Time?3?$AA@ 10079c0c     d4main.obj
 0003:00001c1c       ??_C@_0BA@HHKL@TitleAppend?4txt?$AA@ 10079c1c     d4main.obj
 0003:00001c2c       ??_C@_0BN@OFB@CodeBase?56?45?5Database?5Server?$AA@ 10079c2c     d4main.obj
 0003:00001c4c       ??_C@_05JKGE@?$CFs?5?$CFs?$AA@ 10079c4c     d4main.obj
 0003:00001c54       ??_C@_03CMJG@OFF?$AA@      10079c54     d4main.obj
 0003:00001c58       ??_C@_02HAKO@ON?$AA@       10079c58     d4main.obj
 0003:00001c5c       ??_C@_07PCHH@Unknown?$AA@  10079c5c     d4main.obj
 0003:00001c64       ??_C@_07CEDG@?$CFs?5?$CFd?$CF?$CF?$AA@ 10079c64     d4main.obj
 0003:00001c6c       ??_C@_09COL@?$CFs?5?$CFld?5KB?$AA@ 10079c6c     d4main.obj
 0003:00001c78       ??_C@_09JGBD@?$CFs?5FoxPro?$AA@ 10079c78     d4main.obj
 0003:00001c84       ??_C@_08COHE@?$CFs?5dBASE?$AA@ 10079c84     d4main.obj
 0003:00001c90       ??_C@_0L@NMNF@?$CFs?5Clipper?$AA@ 10079c90     d4main.obj
 0003:00001c9c       ??_C@_0L@GHD@?$CFs?5Unknown?$AA@ 10079c9c     d4main.obj
 0003:00001ca8       ??_C@_05GGPB@?$CFs?5?$CFd?$AA@ 10079ca8     d4main.obj
 0003:00001cb0       ??_C@_0BF@DFAN@?$CFs?5Serial?5Number?3?5?$CFs?$AA@ 10079cb0     d4main.obj
 0003:00001cc8       ??_C@_0BM@FFCB@?$CFs?5Distribution?5Number?3?5?5?$CFs?$AA@ 10079cc8     d4main.obj
 0003:00001ce4       ??_C@_06EIMM@?$CFs?5?5?$CFs?$AA@ 10079ce4     d4main.obj
 0003:00001cec       ??_C@_0M@DPD@Customer?5?$CFs?$AA@ 10079cec     d4main.obj
 0003:00001cf8       ??_C@_0BJ@FCMA@Application?5Developer?5?$CFs?$AA@ 10079cf8     d4main.obj
 0003:00001d14       ??_C@_0BA@HOOO@NOTICE?5OF?5?$CFs?5?$CFs?$AA@ 10079d14     d4main.obj
 0003:00001d24       ??_C@_09EKDM@Build?5?$CFld?$AA@ 10079d24     d4main.obj
 0003:00001d30       ??_C@_07FFME@Enabled?$AA@  10079d30     d4main.obj
 0003:00001d38       ??_C@_08FGLH@Disabled?$AA@ 10079d38     d4main.obj
 0003:00001d44       ??_C@_0BO@FBNL@?$CK?$CK?$CK?5Unexpectedly?5Disabled?5?$CK?$CK?$CK?$AA@ 10079d44     d4main.obj
 0003:00001d64       ??_C@_09MCCL@Unlimited?$AA@ 10079d64     d4main.obj
 0003:00001d70       ??_C@_0CK@OMHL@?$CFd?5Days?0?5?$CFd?5Hours?0?5?$CFd?5Minutes?0?5?$CF@ 10079d70     d4main.obj
 0003:00001d9c       ??_C@_08PGCL@DLGABOUT?$AA@ 10079d9c     d4main.obj
 0003:00001da8       ??_C@_0BA@LHKD@DLGABOUTLICENCE?$AA@ 10079da8     d4main.obj
 0003:00001db8       ??_C@_0P@EMKI@DLGSTARTCONFIG?$AA@ 10079db8     d4main.obj
 0003:00001dc8       ??_C@_06PINC@String?$AA@   10079dc8     d4main.obj
 0003:00001dd0       ??_C@_0N@BLPE@?2CBAdmin?4exe?$AA@ 10079dd0     d4main.obj
 0003:00001de0       ??_C@_0BD@FCLH@Locate?5CBAdmin?4exe?$AA@ 10079de0     d4main.obj
 0003:00001df4       ??_C@_0CE@KBGC@CodeBase?5Administrator?$AACBADMIN?4E@ 10079df4     d4main.obj
 0003:00001e18       ??_C@_0EP@HCHK@CodeBase?5Administrator?5could?5not@ 10079e18     d4main.obj
 0003:00001e68       ??_C@_0BC@OGG@CBAdmin?5Not?5Found?$AA@ 10079e68     d4main.obj
 0003:00001e7c       ??_C@_0M@GHAB@CBAdmin?4exe?$AA@ 10079e7c     d4main.obj
 0003:00001e88       ??_C@_01PCFE@?2?$AA@       10079e88     d4main.obj
 0003:00001e8c       ??_C@_0CJ@GAJO@Software?2Sequiter?2CodeBase?5Admin@ 10079e8c     d4main.obj
 0003:00001eb8       ??_C@_07KHA@BaseDir?$AA@   10079eb8     d4main.obj
 0003:00001ec0       ??_C@_0DE@NCOJ@Are?5you?5sure?5you?5wish?5to?5close?5t@ 10079ec0     d4main.obj
 0003:00001ef4       ??_C@_0BB@DDHH@Shutdown?5Warning?$AA@ 10079ef4     d4main.obj
 0003:00001f08       ??_C@_0GI@JIJE@?5clients?5still?5active?4?5Click?5?8OK@ 10079f08     d4main.obj
 0003:00001f70       ??_C@_0DA@CHKL@The?5CodeBase?5database?5server?5is?5@ 10079f70     d4main.obj
 0003:00001fa0       ??_C@_0P@NOHN@TaskbarCreated?$AA@ 10079fa0     d4main.obj
 0003:00001fb0       ??_C@_0GB@GJAA@An?5instance?5of?5the?5CodeBase?5data@ 10079fb0     d4main.obj
 0003:00002014       ??_C@_0BH@OAFA@CodeBase?5Server?5Status?$AA@ 1007a014     d4main.obj
 0003:0000202c       ??_C@_0BM@EPHB@failed?5to?5set?5drive?5of?5path?$AA@ 1007a02c     d4main.obj
 0003:00002048       ??_C@_0BD@CDFE@failed?5to?5set?5path?$AA@ 1007a048     d4main.obj
 0003:0000205c       ??_C@_01FNLH@a?$AA@        1007a05c     d4main.obj
 0003:00002060       ??_C@_0M@HIKP@CONFIG4?4dbf?$AA@ 1007a060     d4main.obj
 0003:0000206c       ??_C@_04CJIC@?4tmp?$AA@    1007a06c     D4MODIFY.obj
 0003:00002074       ??_C@_04FEEL@TEMP?$AA@     1007a074     D4MODIFY.obj
 0003:0000207c       ??_C@_0CL@ENNK@Fields?5of?5same?5name?5must?5be?5the?5@ 1007a07c     D4MODIFY.obj
 0003:000020a8       ??_C@_09GEKP@DEL4REUSE?$AA@ 1007a0a8     D4OPEN.obj
 0003:000020b4       ??_C@_0CN@CDGN@FoxPro?58?40?5AutoIncrement?5field?5n@ 1007a0b4     D4OPEN.obj
 0003:000020e4       ??_C@_01KIOG@?$BK?$AA@     1007a0e4     d4pack.obj
 0003:00002198       ??_C@_0BA@CBFG@?5?5?5?4?5?5?5?4?5?5?5?4?5?5?5?$AA@ 1007a198     d4secure.obj
 0003:000021a8       ??_C@_0BA@CGJC@?5?5?5?5?5?5?5?5?5?5?5?5?5?5?5?$AA@ 1007a1a8     d4secure.obj
 0003:000021b8       ??_C@_05GALO@ADMIN?$AA@    1007a1b8     d4secure.obj
 0003:000021c0       ??_C@_08BKMO@COMPRESS?$AA@ 1007a1c0     d4secure.obj
 0003:000021cc       ??_C@_05HKPP@INDEX?$AA@    1007a1cc     d4secure.obj
 0003:000021d4       ??_C@_06NDPG@UPDATE?$AA@   1007a1d4     d4secure.obj
 0003:000021dc       ??_C@_06FMHL@DELETE?$AA@   1007a1dc     d4secure.obj
 0003:000021e4       ??_C@_06PHI@APPEND?$AA@    1007a1e4     d4secure.obj
 0003:000021ec       ??_C@_04GHHF@READ?$AA@     1007a1ec     d4secure.obj
 0003:000021f4       ??_C@_09BIDO@ACCOUNTID?$AA@ 1007a1f4     d4secure.obj
 0003:00002200       ??_C@_05OBDH@PRIV4?$AA@    1007a200     d4secure.obj
 0003:00002208       ??_C@_0L@OGBA@DISCONNECT?$AA@ 1007a208     d4secure.obj
 0003:00002214       ??_C@_0L@JFDP@CREATE_TMP?$AA@ 1007a214     d4secure.obj
 0003:00002220       ??_C@_0L@FGJF@CREATE_DEL?$AA@ 1007a220     d4secure.obj
 0003:0000222c       ??_C@_06JBCM@CREATE?$AA@   1007a22c     d4secure.obj
 0003:00002234       ??_C@_07CHC@TCP_END?$AA@   1007a234     d4secure.obj
 0003:0000223c       ??_C@_09MGDM@TCP_BEGIN?$AA@ 1007a23c     d4secure.obj
 0003:00002248       ??_C@_08NHJF@PASSWORD?$AA@ 1007a248     d4secure.obj
 0003:00002254       ??_C@_08KIIM@ACCOUNT4?$AA@ 1007a254     d4secure.obj
 0003:00002260       ??_C@_0DH@ELPN@d4seekLongLong?5not?5supported?5for@ 1007a260     D4SEEK.obj
 0003:00002298       ??_C@_0GF@HKOI@IS0090?3Server?5has?5received?5a?5Dis@ 1007a298     d4server.obj
 0003:00002300       ??_C@_0GJ@OJHJ@ES0210?3Server?5is?5disconnecting?5c@ 1007a300     d4server.obj
 0003:0000236c       ??_C@_06BJID@SERVER?$AA@   1007a36c     d4server.obj
 0003:00002374       ??_C@_0EK@MFAH@Failure?5validating?5tables?5when?5V@ 1007a374     d4server.obj
 0003:000023c0       ??_C@_09OAHN@CMDSTFAIL?$AA@ 1007a3c0     d4server.obj
 0003:000023cc       ??_C@_0L@FODD@IDHANDLING?$AA@ 1007a3cc     d4server.obj
 0003:000023d8       ??_C@_0L@GJCC@OPTIMIZEWR?$AA@ 1007a3d8     d4server.obj
 0003:000023e4       ??_C@_08EGPK@OPTIMIZE?$AA@ 1007a3e4     d4server.obj
 0003:000023f0       ??_C@_0L@LBPC@D4COMPRESS?$AA@ 1007a3f0     d4server.obj
 0003:000023fc       ??_C@_07DAOL@D4CHECK?$AA@  1007a3fc     d4server.obj
 0003:00002404       ??_C@_05MDAN@D4ZAP?$AA@    1007a404     d4server.obj
 0003:0000240c       ??_C@_06PBGA@D4PACK?$AA@   1007a40c     d4server.obj
 0003:00002414       ??_C@_09PMGF@D4REINDEX?$AA@ 1007a414     d4server.obj
 0003:00002420       ??_C@_08BCGL@I4CREATE?$AA@ 1007a420     d4server.obj
 0003:0000242c       ??_C@_08DLIL@D4CREATE?$AA@ 1007a42c     d4server.obj
 0003:00002438       ??_C@_08MKPE@MEMSTTAG?$AA@ 1007a438     d4server.obj
 0003:00002444       ??_C@_0L@GEJF@MEMSTINDEX?$AA@ 1007a444     d4server.obj
 0003:00002450       ??_C@_09LFNC@MEMSTLOCK?$AA@ 1007a450     d4server.obj
 0003:0000245c       ??_C@_09OJOK@MEMSTDATA?$AA@ 1007a45c     d4server.obj
 0003:00002468       ??_C@_08IBBA@MEMSTMAX?$AA@ 1007a468     d4server.obj
 0003:00002474       ??_C@_0L@LDKK@MEMSTCLIEN?$AA@ 1007a474     d4server.obj
 0003:00002480       ??_C@_0L@IIMM@MEMSTBLOCK?$AA@ 1007a480     d4server.obj
 0003:0000248c       ??_C@_07MPKI@MEMSZSP?$AA@  1007a48c     d4server.obj
 0003:00002494       ??_C@_07DDPG@MEMSZSB?$AA@  1007a494     d4server.obj
 0003:0000249c       ??_C@_09NBK@MEMSZMEMO?$AA@ 1007a49c     d4server.obj
 0003:000024a8       ??_C@_08GIAB@MEMSZBUF?$AA@ 1007a4a8     d4server.obj
 0003:000024b4       ??_C@_0L@FIAN@MEMSZBLOCK?$AA@ 1007a4b4     d4server.obj
 0003:000024c0       ??_C@_07ENGF@MEMXTAG?$AA@  1007a4c0     d4server.obj
 0003:000024c8       ??_C@_09IIOA@MEMXINDEX?$AA@ 1007a4c8     d4server.obj
 0003:000024d4       ??_C@_0CI@KMKL@or?5MAXLOGSIZE?5missing?5when?5LOG?5s@ 1007a4d4     d4server.obj
 0003:000024fc       ??_C@_0L@FNDI@MAXLOGSIZE?$AA@ 1007a4fc     d4server.obj
 0003:00002508       ??_C@_03NDME@LOG?$AA@      1007a508     d4server.obj
 0003:0000250c       ??_C@_08GEPO@LOGFLUSH?$AA@ 1007a50c     d4server.obj
 0003:00002518       ??_C@_07NJFM@LOGCONN?$AA@  1007a518     d4server.obj
 0003:00002520       ??_C@_08KAFJ@VALIDATE?$AA@ 1007a520     d4server.obj
 0003:0000252c       ??_C@_08KNNH@OPENMODE?$AA@ 1007a52c     d4server.obj
 0003:00002538       ??_C@_08EFPL@SUSPENDQ?$AA@ 1007a538     d4server.obj
 0003:00002544       ??_C@_06HEGA@TCPEND?$AA@   1007a544     d4server.obj
 0003:0000254c       ??_C@_08NMDA@TCPBEGIN?$AA@ 1007a54c     d4server.obj
 0003:00002558       ??_C@_08MLOF@KEEPOPEN?$AA@ 1007a558     d4server.obj
 0003:00002564       ??_C@_08MAFF@MEMXLOCK?$AA@ 1007a564     d4server.obj
 0003:00002570       ??_C@_08JMGN@MEMXDATA?$AA@ 1007a570     d4server.obj
 0003:0000257c       ??_C@_0L@CJLD@MEMXCLIENT?$AA@ 1007a57c     d4server.obj
 0003:00002588       ??_C@_09GELJ@MEMXBLOCK?$AA@ 1007a588     d4server.obj
 0003:00002594       ??_C@_0L@HJPP@NWORKTHRDS?$AA@ 1007a594     d4server.obj
 0003:000025a0       ??_C@_0N@GHNI@S4SERVER?4err?$AA@ 1007a5a0     d4server.obj
 0003:000025b0       ??_C@_07ODBE@ERRNAME?$AA@  1007a5b0     d4server.obj
 0003:000025b8       ??_C@_08IDJM@PRIVNAME?$AA@ 1007a5b8     d4server.obj
 0003:000025c4       ??_C@_08EIJP@ACCTNAME?$AA@ 1007a5c4     d4server.obj
 0003:000025d0       ??_C@_0L@HDGI@PREBACKLOG?$AA@ 1007a5d0     d4server.obj
 0003:000025dc       ??_C@_08LJA@BACKLOG2?$AA@  1007a5dc     d4server.obj
 0003:000025e8       ??_C@_08PECJ@BACKLOG1?$AA@ 1007a5e8     d4server.obj
 0003:000025f4       ??_C@_0N@JPDN@S4SERVER?4log?$AA@ 1007a5f4     d4server.obj
 0003:00002604       ??_C@_07KPOK@LOGNAME?$AA@  1007a604     d4server.obj
 0003:0000260c       ??_C@_0L@GDAK@SYSTEMPATH?$AA@ 1007a60c     d4server.obj
 0003:00002618       ??_C@_07MAFK@DEFPATH?$AA@  1007a618     d4server.obj
 0003:00002620       ??_C@_09HCNG@PROCESSID?$AA@ 1007a620     d4server.obj
 0003:0000262c       ??_C@_08FALE@SERVERID?$AA@ 1007a62c     d4server.obj
 0003:00002638       ??_C@_0P@CBNG@open?5error?3?5?$CFd?$AA@ 1007a638     d4server.obj
 0003:00002648       ??_C@_0N@FMEL@S4SERVER?4dbf?$AA@ 1007a648     d4server.obj
 0003:00002658       ??_C@_0GL@HGHO@IS0010?3Server?5is?5disconnecting?5c@ 1007a658     d4server.obj
 0003:000026c4       ??_C@_0HA@LCIH@IS0220?3Server?5is?5disconnecting?5c@ 1007a6c4     d4server.obj
 0003:00002734       ??_C@_0IC@JOHD@IS0330?3Server?5is?5disconnecting?5c@ 1007a734     d4server.obj
 0003:000027b8       ??_C@_0HA@EKHA@ES0320?3Server?5is?5disconnecting?5c@ 1007a7b8     d4server.obj
 0003:00002828       ??_C@_0GD@CDAF@IS0250?3Server?5is?5disconnecting?5c@ 1007a828     d4server.obj
 0003:0000288c       ??_C@_0HO@GDFI@IS0240?3Server?5is?5disconnecting?5c@ 1007a88c     d4server.obj
 0003:00002948       ??_C@_0CA@IDLC@UPPER?$CI?5LEFT?$CI?5FILE_NAME?0?5120?5?$CJ?5?$CJ?$AA@ 1007a948     d4serv2.obj
 0003:00002968       ??_C@_08HOMB@FILENAME?$AA@ 1007a968     d4serv2.obj
 0003:00002974       ??_C@_09DHJA@FILE_NAME?$AA@ 1007a974     d4serv2.obj
 0003:00002980       ??_C@_0DB@BMJN@?5connection?5initialized?5in?5serve@ 1007a980     d4serv2.obj
 0003:000029b4       ??_C@_0FN@FBDD@IS0020?3Server?5is?5uninitializing?5@ 1007a9b4     d4serv2.obj
 0003:00002a14       ??_C@_0EB@GOBD@?5ERROR?3?5FAILED?5TO?5connect4init?$CI?$CJ@ 1007aa14     d4serv2.obj
 0003:00002a58       ??_C@_0DN@CKGL@?5ERROR?3?5FAILED?5TO?5INITIALIZE?5CLI@ 1007aa58     d4serv2.obj
 0003:00002a98       ??_C@_0DG@HAAL@new?5client?5created?5by?5server?5in?5@ 1007aa98     d4serv2.obj
 0003:00002ad0       ??_C@_0BP@JLOB@Failure?5to?5allocate?5new?5client?$AA@ 1007aad0     d4serv2.obj
 0003:00002af0       ??_C@_0DF@PIGA@IS0001?3Elapsed?5time?5in?5Server4ac@ 1007aaf0     d4serv2.obj
 0003:00002b28       ??_C@_0DC@NBDB@Failure?5to?5allocate?52nd?5half?5of?5@ 1007ab28     d4serv2.obj
 0003:00002b5c       ??_C@_0HJ@MDGA@ES0010?3Server?5unable?5to?5find?5exp@ 1007ab5c     d4serv2.obj
 0003:00002bd8       ??_C@_0DJ@KLLG@existing?5client?5found?5in?5d4serv2@ 1007abd8     d4serv2.obj
 0003:00002c14       ??_C@_0GD@GKHB@WS0001?3Warning?3?5Server?5received?5@ 1007ac14     d4serv2.obj
 0003:00002c78       ??_C@_0FB@PAIP@ES0002?3Server?5is?5terminating?5the@ 1007ac78     d4serv2.obj
 0003:00002ccc       ??_C@_0FM@HNHM@ES0001?3Server?5is?5terminating?5the@ 1007accc     d4serv2.obj
 0003:00002d28       ??_C@_0BP@LDNB@Failure?5to?5allocate?5new?5socket?$AA@ 1007ad28     d4serv2.obj
 0003:00002d48       ??_C@_0JB@PNBN@IS0050?3Server?5is?5disconnecting?5c@ 1007ad48     d4serv2.obj
 0003:00002ddc       ??_C@_0GP@LGI@IS0010?3Server?5is?5disconnecting?5c@ 1007addc     d4serv2.obj
 0003:00002e4c       ??_C@_0CJ@GKFP@record?5and?5record_old?5unexpected@ 1007ae4c     d4serv2.obj
 0003:00002e78       ??_C@_02LEHJ@?$CK?4?$AA@   1007ae78     d4serv2.obj
 0003:00002e7c       ??_C@_0FC@LPM@first?5half?5java?5was?5not?5found?5in@ 1007ae7c     d4serv2.obj
 0003:00002ed0       ??_C@_0BF@HKKK@Failure?5to?5java?5half?$AA@ 1007aed0     d4serv2.obj
 0003:00002ee8       ??_C@_0DN@JHEF@existing?5client?5found?5in?5d4serv2@ 1007aee8     d4serv2.obj
 0003:00002f28       ??_C@_0CI@FODL@?5serverv4clientConnect?$CI?$CJ?5receivi@ 1007af28     d4serv2.obj
 0003:00002f50       ??_C@_0JF@MGNC@IS0090?3Server?5is?5disconnecting?5c@ 1007af50     d4serv2.obj
 0003:00002fe8       ??_C@_0JI@JGHD@IS0200?3Server?5is?5disconnecting?5c@ 1007afe8     d4serv2.obj
 0003:00003080       ??_C@_0BJ@PDN@Failure?5to?5allocate?5pipe?$AA@ 1007b080     d4serv2.obj
 0003:0000309c       ??_C@_0BL@FCDJ@Failure?5to?5sending?5message?$AA@ 1007b09c     d4serv2.obj
 0003:000030b8       ??_C@_0CP@GLNE@Failure?5to?5allocate?5message?5data@ 1007b0b8     d4serv2.obj
 0003:000030e8       ??_C@_0BM@GOBD@Failure?5to?5allocate?5message?$AA@ 1007b0e8     d4serv2.obj
 0003:00003104       ??_C@_0O@EPFC@d4tagSelect?$CI?$CJ?$AA@ 1007b104     D4TAG.obj
 0003:00003114       ??_C@_0CF@BBIN@input?5tag?5doesn?8t?5belong?5to?5inpu@ 1007b114     D4TAG.obj
 0003:0000313c       ??_C@_0DC@JGAC@Memory?3?5total?5allocated?3?5?$CFld?0?5nu@ 1007b13c     e4error.obj
 0003:00003170       ??_C@_0BK@OGHO@Client?5Info?3?5ip?5address?3?5?$AA@ 1007b170     e4error.obj
 0003:0000318c       ??_C@_0DG@NOEI@CurrentClient?5is?5not?5set?0?5no?5cli@ 1007b18c     e4error.obj
 0003:000031c4       ??_C@_0CL@NGME@CODE4?5is?5null?0?5no?5client?5info?5is@ 1007b1c4     e4error.obj
 0003:000031f0       ??_C@_0N@NKKO@CCYY?1MM?1DD?5?5?$AA@ 1007b1f0     e4error.obj
 0003:00003200       ??_C@_02PIMC@?$AN?6?$AA@   1007b200     e4error.obj
 0003:00003204       ??_C@_0N@HLNF@Memory?5Error?$AA@ 1007b204     e4error.obj
 0003:00003214       ??_C@_0P@JCAD@CODEBASE?5ERROR?$AA@ 1007b214     e4error.obj
 0003:00003224       ??_C@_04GLLG@?5?$CD?3?5?$AA@ 1007b224     e4error.obj
 0003:0000322c       ??_C@_05CKBG@Error?$AA@    1007b22c     e4error.obj
 0003:00003234       ??_C@_08PNBG@KEYEQUAL?$AA@ 1007b234     e4functi.obj
 0003:00003240       ??_C@_06NFMA@ASCEND?$AA@   1007b240     e4functi.obj
 0003:00003248       ??_C@_07JMHO@DESCEND?$AA@  1007b248     e4functi.obj
 0003:00003250       ??_C@_05CLBC@EMPTY?$AA@    1007b250     e4functi.obj
 0003:00003258       ??_C@_05BLPK@L2BIN?$AA@    1007b258     e4functi.obj
 0003:00003260       ??_C@_03KPJM@VAL?$AA@      1007b260     e4functi.obj
 0003:00003264       ??_C@_05BANG@RECNO?$AA@    1007b264     e4functi.obj
 0003:0000326c       ??_C@_04HEBB@YEAR?$AA@     1007b26c     e4functi.obj
 0003:00003274       ??_C@_05DOND@MONTH?$AA@    1007b274     e4functi.obj
 0003:0000327c       ??_C@_03IDGA@DAY?$AA@      1007b27c     e4functi.obj
 0003:00003280       ??_C@_04CJNM@DATE?$AA@     1007b280     e4functi.obj
 0003:00003288       ??_C@_04KGNB@CTOD?$AA@     1007b288     e4functi.obj
 0003:00003290       ??_C@_04PDPA@STOD?$AA@     1007b290     e4functi.obj
 0003:00003298       ??_C@_08MIJC@DATETIME?$AA@ 1007b298     e4functi.obj
 0003:000032a4       ??_C@_03BEOA@IIF?$AA@      1007b2a4     e4functi.obj
 0003:000032a8       ??_C@_04HPIJ@PADR?$AA@     1007b2a8     e4functi.obj
 0003:000032b0       ??_C@_04HNDD@PADL?$AA@     1007b2b0     e4functi.obj
 0003:000032b8       ??_C@_05JCNK@RIGHT?$AA@    1007b2b8     e4functi.obj
 0003:000032c0       ??_C@_04PAN@LEFT?$AA@      1007b2c0     e4functi.obj
 0003:000032c8       ??_C@_07PMHH@ALLTRIM?$AA@  1007b2c8     e4functi.obj
 0003:000032d0       ??_C@_05OEAC@LTRIM?$AA@    1007b2d0     e4functi.obj
 0003:000032d8       ??_C@_04GMOJ@TRIM?$AA@     1007b2d8     e4functi.obj
 0003:000032e0       ??_C@_05JCH@SPACE?$AA@     1007b2e0     e4functi.obj
 0003:000032e8       ??_C@_04FMKL@TTOC?$AA@     1007b2e8     e4functi.obj
 0003:000032f0       ??_C@_04JIK@DTOC?$AA@      1007b2f0     e4functi.obj
 0003:000032f8       ??_C@_04KAPK@DTOS?$AA@     1007b2f8     e4functi.obj
 0003:00003300       ??_C@_05DBOO@UPPER?$AA@    1007b300     e4functi.obj
 0003:00003308       ??_C@_04CFBP@TIME?$AA@     1007b308     e4functi.obj
 0003:00003310       ??_C@_06CILI@SUBSTR?$AA@   1007b310     e4functi.obj
 0003:00003318       ??_C@_07KHPO@STRZERO?$AA@  1007b318     e4functi.obj
 0003:00003320       ??_C@_03JBMD@STR?$AA@      1007b320     e4functi.obj
 0003:00003324       ??_C@_03HAHB@DEL?$AA@      1007b324     e4functi.obj
 0003:00003328       ??_C@_03DFPO@CHR?$AA@      1007b328     e4functi.obj
 0003:0000332c       ??_C@_01PILM@$?$AA@        1007b32c     e4functi.obj
 0003:00003330       ??_C@_01FDLN@?1?$AA@       1007b330     e4functi.obj
 0003:00003334       ??_C@_01FDHG@?$CK?$AA@     1007b334     e4functi.obj
 0003:00003338       ??_C@_02BOCF@?$CK?$CK?$AA@ 1007b338     e4functi.obj
 0003:0000333c       ??_C@_01KHHK@?$FO?$AA@     1007b33c     e4functi.obj
 0003:00003340       ??_C@_01FHE@?$DM?$AA@      1007b340     e4functi.obj
 0003:00003344       ??_C@_01FAFK@?$DO?$AA@     1007b344     e4functi.obj
 0003:00003348       ??_C@_01KPOD@?$DN?$AA@     1007b348     e4functi.obj
 0003:0000334c       ??_C@_02EDNL@?$DN?$DM?$AA@ 1007b34c     e4functi.obj
 0003:00003350       ??_C@_02PPOG@?$DM?$DN?$AA@ 1007b350     e4functi.obj
 0003:00003354       ??_C@_02BGPF@?$DN?$DO?$AA@ 1007b354     e4functi.obj
 0003:00003358       ??_C@_02NCLD@?$DO?$DN?$AA@ 1007b358     e4functi.obj
 0003:0000335c       ??_C@_02FP@?$DM?$DO?$AA@   1007b35c     e4functi.obj
 0003:00003360       ??_C@_01KNFJ@?$CD?$AA@     1007b360     e4functi.obj
 0003:00003364       ??_C@_01GJD@?9?$AA@        1007b364     e4functi.obj
 0003:00003368       ??_C@_01PJOB@?$CL?$AA@     1007b368     e4functi.obj
 0003:0000336c       ??_C@_05EEMF@?4AND?4?$AA@  1007b36c     e4functi.obj
 0003:00003374       ??_C@_04OADD@?4OR?4?$AA@   1007b374     e4functi.obj
 0003:0000337c       ??_C@_01PIHH@?$CB?$AA@     1007b37c     e4functi.obj
 0003:00003380       ??_C@_05KMFE@?4NOT?4?$AA@  1007b380     e4functi.obj
 0003:00003388       ??_C@_03BKGH@?4F?4?$AA@    1007b388     e4functi.obj
 0003:0000338c       ??_C@_07FLPF@?4FALSE?4?$AA@ 1007b38c     e4functi.obj
 0003:00003394       ??_C@_03FNJL@?4T?4?$AA@    1007b394     e4functi.obj
 0003:00003398       ??_C@_06FFC@?4TRUE?4?$AA@  1007b398     e4functi.obj
 0003:000033a0       ??_C@_08KBJN@?5?5?5?5?5?5?50?$AA@ 1007b3a0     e4functi.obj
 0003:000033ac       ??_C@_06DAEO@000000?$AA@   1007b3ac     e4functi.obj
 0003:00005278       ?e4errorData@@3PAUERROR4DATASt@@A 1007d278     e4string.obj
 0003:000055f0       ??_C@_0BN@POKJ@Server?5Configuration?5Failure?$AA@ 1007d5f0     e4string.obj
 0003:00005610       ??_C@_0P@GHMJ@Server?5Failure?$AA@ 1007d610     e4string.obj
 0003:00005620       ??_C@_0BB@IGAF@LICENSE?5NOTICE?3?5?$AA@ 1007d620     e4string.obj
 0003:00005634       ??_C@_0GE@JFAB@Server?5is?5not?5accepting?5any?5new?5@ 1007d634     e4string.obj
 0003:00005698       ??_C@_0DP@IMFJ@Invalid?5TCP?5Address?5access?5Autho@ 1007d698     e4string.obj
 0003:000056d8       ??_C@_0DF@NBDP@Invalid?5Password?5Authorization?5E@ 1007d6d8     e4string.obj
 0003:00005710       ??_C@_0DE@MHJI@Invalid?5User?5ID?5Authorization?5Er@ 1007d710     e4string.obj
 0003:00005744       ??_C@_0CE@IPFL@Authorization?5Error?5?$CIaccess?5deni@ 1007d744     e4string.obj
 0003:00005768       ??_C@_0BF@HFBJ@Name?5not?5Found?5error?$AA@ 1007d768     e4string.obj
 0003:00005780       ??_C@_0DC@EGKG@CodeBase?5Capabilities?5Exceeded?5?$CI@ 1007d780     e4string.obj
 0003:000057b4       ??_C@_0GI@HANB@Server?5encryption?5support?5mismat@ 1007d7b4     e4string.obj
 0003:0000581c       ??_C@_0FM@DLLD@Encryption?5not?5enabled?5on?5client@ 1007d81c     e4string.obj
 0003:00005878       ??_C@_0CD@PLGH@system?9level?5communication?5failu@ 1007d878     e4string.obj
 0003:0000589c       ??_C@_0BN@CGDL@Communication?5Packet?5Corrupt?$AA@ 1007d89c     e4string.obj
 0003:000058bc       ??_C@_0CF@DMJA@Communication?5Packet?5Length?5Mism@ 1007d8bc     e4string.obj
 0003:000058e4       ??_C@_0BO@IEGF@Communication?5Message?5Corrupt?$AA@ 1007d8e4     e4string.obj
 0003:00005904       ??_C@_0BC@CAFF@Network?5Timed?5Out?$AA@ 1007d904     e4string.obj
 0003:00005918       ??_C@_0CC@IAI@Failure?5Loading?5Communication?5DL@ 1007d918     e4string.obj
 0003:0000593c       ??_C@_0BA@LHNM@Network?5Failure?$AA@ 1007d93c     e4string.obj
 0003:0000594c       ??_C@_0P@MMLN@Socket?5Failure?$AA@ 1007d94c     e4string.obj
 0003:0000595c       ??_C@_0BD@FDFC@Connection?5Failure?$AA@ 1007d95c     e4string.obj
 0003:00005970       ??_C@_0CC@MGHL@Communication?5Information?5Corrup@ 1007d970     e4string.obj
 0003:00005994       ??_C@_0BO@DLKI@Transaction?5state?5confliction?$AA@ 1007d994     e4string.obj
 0003:000059b4       ??_C@_0CI@MLAC@Error?5Appending?5Information?5to?5L@ 1007d9b4     e4string.obj
 0003:000059dc       ??_C@_0BL@OAAH@Transaction?5Commit?5Failure?$AA@ 1007d9dc     e4string.obj
 0003:000059f8       ??_C@_0BN@PNGD@Transaction?5Rollback?5Failure?$AA@ 1007d9f8     e4string.obj
 0003:00005a18       ??_C@_0BC@JHBG@Transaction?5Error?$AA@ 1007da18     e4string.obj
 0003:00005a2c       ??_C@_0BM@NJGP@Transaction?5Violation?5Error?$AA@ 1007da2c     e4string.obj
 0003:00005a48       ??_C@_0BJ@HLEA@Error?5Creating?5Memo?5File?$AA@ 1007da48     e4string.obj
 0003:00005a64       ??_C@_0BC@OIGE@Memo?5File?5Corrupt?$AA@ 1007da64     e4string.obj
 0003:00005a78       ??_C@_0CF@DJJ@Application?1Library?5version?5mism@ 1007da78     e4string.obj
 0003:00005aa0       ??_C@_0BF@DBKB@Function?5unsupported?$AA@ 1007daa0     e4string.obj
 0003:00005ab8       ??_C@_0DM@ICOJ@Function?5unsupported?3?5library?5no@ 1007dab8     e4string.obj
 0003:00005af4       ??_C@_0DK@LPHK@Function?5unsupported?3?5library?5no@ 1007daf4     e4string.obj
 0003:00005b30       ??_C@_0DI@DDHI@Function?5unsupported?3?5library?5co@ 1007db30     e4string.obj
 0003:00005b68       ??_C@_0DI@NECN@Function?5unsupported?3?5library?5co@ 1007db68     e4string.obj
 0003:00005ba0       ??_C@_0DH@IBKJ@Function?5unsupported?3?5library?5co@ 1007dba0     e4string.obj
 0003:00005bd8       ??_C@_0DI@BBNI@Function?5unsupported?3?5library?5co@ 1007dbd8     e4string.obj
 0003:00005c10       ??_C@_0CK@DNJK@Data?5Structure?5Corrupt?5or?5not?5In@ 1007dc10     e4string.obj
 0003:00005c3c       ??_C@_0BP@PKE@Structure?5Verification?5Failure?$AA@ 1007dc3c     e4string.obj
 0003:00005c5c       ??_C@_0BC@DOOL@Unexpected?5Result?$AA@ 1007dc5c     e4string.obj
 0003:00005c70       ??_C@_0GA@OOBE@CodeBase?5Demo?5Limitation?6Contact@ 1007dc70     e4string.obj
 0003:00005cd0       ??_C@_0CA@BBOJ@Null?5Input?5Parameter?5unexpected?$AA@ 1007dcd0     e4string.obj
 0003:00005cf0       ??_C@_0BF@FJCB@Unexpected?5Parameter?$AA@ 1007dcf0     e4string.obj
 0003:00005d08       ??_C@_0O@HJOL@Out?5of?5Memory?$AA@ 1007dd08     e4string.obj
 0003:00005d18       ??_C@_0BH@BFOH@Unexpected?5Information?$AA@ 1007dd18     e4string.obj
 0003:00005d30       ??_C@_0CF@JLG@Error?5In?5Sending?5Report?5to?5Data?5@ 1007dd30     e4string.obj
 0003:00005d58       ??_C@_0BI@IADP@Error?5Retrieving?5Report?$AA@ 1007dd58     e4string.obj
 0003:00005d70       ??_C@_0BE@PKLD@Error?5Saving?5Report?$AA@ 1007dd70     e4string.obj
 0003:00005d84       ??_C@_0BH@FOJO@Error?5In?5Report?5Output?$AA@ 1007dd84     e4string.obj
 0003:00005d9c       ??_C@_0BI@KPLM@Error?5In?5Windows?5Output?$AA@ 1007dd9c     e4string.obj
 0003:00005db4       ??_C@_0BG@DOOC@Error?5Creating?5Object?$AA@ 1007ddb4     e4string.obj
 0003:00005dcc       ??_C@_0BF@JBDJ@Error?5Creating?5Total?$AA@ 1007ddcc     e4string.obj
 0003:00005de4       ??_C@_0CF@LFBC@Error?5Setting?5Group?5Reset?9Expres@ 1007dde4     e4string.obj
 0003:00005e0c       ??_C@_0BF@JMNL@Error?5Creating?5Group?$AA@ 1007de0c     e4string.obj
 0003:00005e24       ??_C@_0BE@MPNL@Error?5Creating?5Area?$AA@ 1007de24     e4string.obj
 0003:00005e38       ??_C@_0BE@BHEF@Error?5Finding?5Style?$AA@ 1007de38     e4string.obj
 0003:00005e4c       ??_C@_0BG@IJOL@Error?5Selecting?5Style?$AA@ 1007de4c     e4string.obj
 0003:00005e64       ??_C@_0BF@GMAG@Error?5Creating?5Style?$AA@ 1007de64     e4string.obj
 0003:00005e7c       ??_C@_0N@BJCP@Report?5Error?$AA@ 1007de7c     e4string.obj
 0003:00005e8c       ??_C@_0DK@HJHP@Relation?5Referred?5to?5Does?5Not?5Ex@ 1007de8c     e4string.obj
 0003:00005ec8       ??_C@_0P@DJFM@Relation?5Error?$AA@ 1007dec8     e4string.obj
 0003:00005ed8       ??_C@_0CC@BMML@Matching?5Slave?5Record?5Not?5Locate@ 1007ded8     e4string.obj
 0003:00005efc       ??_C@_0CD@PIKK@Optimization?5File?5Flushing?5Failu@ 1007defc     e4string.obj
 0003:00005f20       ??_C@_0BN@MIBN@Optimization?5Removal?5Failure?$AA@ 1007df20     e4string.obj
 0003:00005f40       ??_C@_0BD@KEAE@Optimization?5Error?$AA@ 1007df40     e4string.obj
 0003:00005f54       ??_C@_0BL@FPMM@Expression?5Invalid?5for?5Tag?$AA@ 1007df54     e4string.obj
 0003:00005f70       ??_C@_0BE@EDIA@Unterminated?5String?$AA@ 1007df70     e4string.obj
 0003:00005f84       ??_C@_0BD@NCMI@Unrecognized?5Value?$AA@ 1007df84     e4string.obj
 0003:00005f98       ??_C@_0BG@DCLK@Unrecognized?5Operator?$AA@ 1007df98     e4string.obj
 0003:00005fb0       ??_C@_0BG@HIO@Unrecognized?5Function?$AA@ 1007dfb0     e4string.obj
 0003:00005fc8       ??_C@_0BN@LFPL@Sub?9expression?5Type?5is?5Wrong?$AA@ 1007dfc8     e4string.obj
 0003:00005fe8       ??_C@_0BG@HNEM@Right?5Bracket?5Missing?$AA@ 1007dfe8     e4string.obj
 0003:00006000       ??_C@_0CF@GMGO@Overflow?5while?5Evaluating?5Expres@ 1007e000     e4string.obj
 0003:00006028       ??_C@_0BO@EJJC@Number?5of?5Parameters?5is?5Wrong?$AA@ 1007e028     e4string.obj
 0003:00006048       ??_C@_0DG@LEJE@SUBSTR?$CI?$CJ?0?5STR?$CI?$CJ?0?5and?5RIGHT?$CI?$CJ?5nee@ 1007e048     e4string.obj
 0003:00006080       ??_C@_0CG@EMJG@IIF?$CI?$CJ?5Needs?5Parameters?5of?5Same?5L@ 1007e080     e4string.obj
 0003:000060a8       ??_C@_0BL@EBJO@Data?5File?5Name?5not?5Located?$AA@ 1007e0a8     e4string.obj
 0003:000060c4       ??_C@_0BI@MCPD@Expression?5not?5Complete?$AA@ 1007e0c4     e4string.obj
 0003:000060dc       ??_C@_0BK@CKKI@Comma?5or?5Bracket?5Expected?$AA@ 1007e0dc     e4string.obj
 0003:000060f8       ??_C@_0BE@GLG@Candidate?5Key?5Error?$AA@ 1007e0f8     e4string.obj
 0003:0000610c       ??_C@_0BI@DILO@Tag?5Information?5Invalid?$AA@ 1007e10c     e4string.obj
 0003:00006124       ??_C@_0CC@OBJD@Key?5is?5not?5unique?5in?5batch?5updat@ 1007e124     e4string.obj
 0003:00006148       ??_C@_0BB@FCHJ@Unique?5Key?5Error?$AA@ 1007e148     e4string.obj
 0003:0000615c       ??_C@_0BD@KEDI@Tag?5Name?5not?5Found?$AA@ 1007e15c     e4string.obj
 0003:00006170       ??_C@_0BJ@KIJK@Not?5a?5Correct?5Index?5File?$AA@ 1007e170     e4string.obj
 0003:0000618c       ??_C@_0BC@GCCC@Tag?5Entry?5Missing?$AA@ 1007e18c     e4string.obj
 0003:000061a0       ??_C@_0DH@IAHL@Attempt?5to?5perform?5a?5d4seekDoubl@ 1007e1a0     e4string.obj
 0003:000061d8       ??_C@_0CH@OMNE@Record?5Append?5Attempt?5Past?5End?5o@ 1007e1d8     e4string.obj
 0003:00006200       ??_C@_0BL@MLGD@Record?5Length?5is?5too?5Large?$AA@ 1007e200     e4string.obj
 0003:0000621c       ??_C@_0BI@MBLE@Unrecognized?5Field?5Type?$AA@ 1007e21c     e4string.obj
 0003:00006234       ??_C@_0CD@HBHN@Unrecognized?5or?5Invalid?5Field?5Na@ 1007e234     e4string.obj
 0003:00006258       ??_C@_0BI@DOPA@File?5is?5not?5a?5Data?5File?$AA@ 1007e258     e4string.obj
 0003:00006270       ??_C@_0BA@ENFP@Writing?5to?5File?$AA@ 1007e270     e4string.obj
 0003:00006280       ??_C@_0P@CLPD@Unlocking?5File?$AA@ 1007e280     e4string.obj
 0003:00006290       ??_C@_0BJ@PDF@Seeking?5to?5File?5Position?$AA@ 1007e290     e4string.obj
 0003:000062ac       ??_C@_0O@JEBE@Renaming?5File?$AA@ 1007e2ac     e4string.obj
 0003:000062bc       ??_C@_0O@IFAA@Removing?5File?$AA@ 1007e2bc     e4string.obj
 0003:000062cc       ??_C@_0N@KCOA@Reading?5File?$AA@ 1007e2cc     e4string.obj
 0003:000062dc       ??_C@_0CM@LELD@Duplicate?5Instance?5Found?5Error?5O@ 1007e2dc     e4string.obj
 0003:00006308       ??_C@_0BN@JOHA@File?5Find?5Error?5Opening?5File?$AA@ 1007e308     e4string.obj
 0003:00006328       ??_C@_0CO@GCAM@File?5Handle?5Count?5Overflow?5Error@ 1007e328     e4string.obj
 0003:00006358       ??_C@_0BK@HBA@Access?5Error?5Opening?5File?$AA@ 1007e358     e4string.obj
 0003:00006374       ??_C@_0BO@IJPB@Permission?5Error?5Opening?5File?$AA@ 1007e374     e4string.obj
 0003:00006394       ??_C@_0N@IIMI@Opening?5File?$AA@ 1007e394     e4string.obj
 0003:000063a4       ??_C@_0N@LMDP@Locking?5File?$AA@ 1007e3a4     e4string.obj
 0003:000063b4       ??_C@_0BE@NAGG@Setting?5File?5Length?$AA@ 1007e3b4     e4string.obj
 0003:000063c8       ??_C@_0BI@HLJE@Determining?5File?5Length?$AA@ 1007e3c8     e4string.obj
 0003:000063e0       ??_C@_0O@JDPP@Creating?5File?$AA@ 1007e3e0     e4string.obj
 0003:000063f0       ??_C@_0N@JKLG@Closing?5File?$AA@ 1007e3f0     e4string.obj
 0003:00006400       ??_C@_0BO@KFCN@Invalid?5or?5Unknown?5Error?5Code?$AA@ 1007e400     e4string.obj
 0003:00006420       ??_C@_0N@OPIK@Testing?5Only?$AA@ 1007e420     e4string.obj
 0003:00006430       ??_C@_0BD@KGDO@pipe4recvMessageVB?$AA@ 1007e430     e4string.obj
 0003:00006444       ??_C@_0BB@EJMP@pipe4recvMessage?$AA@ 1007e444     e4string.obj
 0003:00006458       ??_C@_0BB@GINN@pipe4sendMessage?$AA@ 1007e458     e4string.obj
 0003:0000646c       ??_C@_0BC@COGC@pipe4sendMessageN?$AA@ 1007e46c     e4string.obj
 0003:00006480       ??_C@_0P@ONA@pipe4sendClose?$AA@ 1007e480     e4string.obj
 0003:00006490       ??_C@_0P@FNLE@pipe4recvClose?$AA@ 1007e490     e4string.obj
 0003:000064a0       ??_C@_0O@BIOA@pipe4sendOpen?$AA@ 1007e4a0     e4string.obj
 0003:000064b0       ??_C@_0O@HMPA@pipe4recvOpen?$AA@ 1007e4b0     e4string.obj
 0003:000064c0       ??_C@_0BI@CHBH@connect4threadReadStore?$AA@ 1007e4c0     e4string.obj
 0003:000064d8       ??_C@_0BE@EOHE@inter4releaseSignal?$AA@ 1007e4d8     e4string.obj
 0003:000064ec       ??_C@_0BG@LKEA@inter4connectionCheck?$AA@ 1007e4ec     e4string.obj
 0003:00006504       ??_C@_0P@NMBO@blast4testRead?$AA@ 1007e504     e4string.obj
 0003:00006514       ??_C@_0BA@DNAE@blast4testWrite?$AA@ 1007e514     e4string.obj
 0003:00006524       ??_C@_0BF@CLPA@server4clientConnect?$AA@ 1007e524     e4string.obj
 0003:0000653c       ??_C@_0BE@HANI@server4clientAccept?$AA@ 1007e53c     e4string.obj
 0003:00006550       ??_C@_0BF@IMKG@connect4workContinue?$AA@ 1007e550     e4string.obj
 0003:00006568       ??_C@_0BB@GHPD@connect4initUndo?$AA@ 1007e568     e4string.obj
 0003:0000657c       ??_C@_0N@GHG@connect4init?$AA@ 1007e57c     e4string.obj
 0003:0000658c       ??_C@_0BD@OAOB@connect4disconnect?$AA@ 1007e58c     e4string.obj
 0003:000065a0       ??_C@_0BA@FECJ@connect4connect?$AA@ 1007e5a0     e4string.obj
 0003:000065b0       ??_C@_0BM@KJDM@connect4bufferWriteRetrieve?$AA@ 1007e5b0     e4string.obj
 0003:000065cc       ??_C@_0BI@ECOI@connect4bufferSendFlush?$AA@ 1007e5cc     e4string.obj
 0003:000065e4       ??_C@_0BI@KBIJ@connect4bufferSendShort?$AA@ 1007e5e4     e4string.obj
 0003:000065fc       ??_C@_0BH@BNJ@connect4bufferSendLong?$AA@ 1007e5fc     e4string.obj
 0003:00006614       ??_C@_0BD@LBFH@connect4bufferSend?$AA@ 1007e614     e4string.obj
 0003:00006628       ??_C@_0BG@MIO@connect4bufferReceive?$AA@ 1007e628     e4string.obj
 0003:00006640       ??_C@_0BE@OMFM@inter4writeRequired?$AA@ 1007e640     e4string.obj
 0003:00006654       ??_C@_0BF@NCKL@inter4writeRequested?$AA@ 1007e654     e4string.obj
 0003:0000666c       ??_C@_0BF@CKAL@inter4writeCompleted?$AA@ 1007e66c     e4string.obj
 0003:00006684       ??_C@_0M@MCAJ@inter4write?$AA@ 1007e684     e4string.obj
 0003:00006690       ??_C@_0BG@GDKD@inter4shutdownRequest?$AA@ 1007e690     e4string.obj
 0003:000066a8       ??_C@_0P@CLE@inter4shutdown?$AA@ 1007e6a8     e4string.obj
 0003:000066b8       ??_C@_0BD@JAKC@inter4readRequired?$AA@ 1007e6b8     e4string.obj
 0003:000066cc       ??_C@_0BE@MNH@inter4readRequested?$AA@ 1007e6cc     e4string.obj
 0003:000066e0       ??_C@_0BE@PEHH@inter4readCompleted?$AA@ 1007e6e0     e4string.obj
 0003:000066f4       ??_C@_0L@LLFH@inter4init?$AA@ 1007e6f4     e4string.obj
 0003:00006700       ??_C@_0M@NPGF@inter4error?$AA@ 1007e700     e4string.obj
 0003:0000670c       ??_C@_0BH@ONFJ@inter4completeRequired?$AA@ 1007e70c     e4string.obj
 0003:00006724       ??_C@_0BI@JMKK@inter4completeRequested?$AA@ 1007e724     e4string.obj
 0003:0000673c       ??_C@_06KCPN@inter4?$AA@   1007e73c     e4string.obj
 0003:00006744       ??_C@_0CC@DMLK@connect4threadWriteSignalRetriev@ 1007e744     e4string.obj
 0003:00006768       ??_C@_0BL@NFND@connect4threadWriteRequest?$AA@ 1007e768     e4string.obj
 0003:00006784       ??_C@_0BN@IEOA@connect4threadWriteCompleted?$AA@ 1007e784     e4string.obj
 0003:000067a4       ??_C@_0CB@JEED@connect4threadReadSignalRetrieve@ 1007e7a4     e4string.obj
 0003:000067c8       ??_C@_0BK@NGJI@connect4threadReadRequest?$AA@ 1007e7c8     e4string.obj
 0003:000067e4       ??_C@_0BM@BPEP@connect4threadReadCompleted?$AA@ 1007e7e4     e4string.obj
 0003:00006800       ??_C@_0BO@HGJC@connect4threadCompleteRequest?$AA@ 1007e800     e4string.obj
 0003:00006820       ??_C@_0BB@ICEL@signal4arrayWait?$AA@ 1007e820     e4string.obj
 0003:00006834       ??_C@_0BA@MBNM@signal4arrayGet?$AA@ 1007e834     e4string.obj
 0003:00006844       ??_C@_0BJ@KKKJ@signal4arrayRemoveSignal?$AA@ 1007e844     e4string.obj
 0003:00006860       ??_C@_0BF@BPNC@signal4arrayInitUndo?$AA@ 1007e860     e4string.obj
 0003:00006878       ??_C@_0BB@MMC@signal4arrayInit?$AA@ 1007e878     e4string.obj
 0003:0000688c       ??_C@_0BA@JCHB@signal4arrayAdd?$AA@ 1007e88c     e4string.obj
 0003:0000689c       ??_C@_0BD@GIIG@signal4routineInit?$AA@ 1007e89c     e4string.obj
 0003:000068b0       ??_C@_0P@MPEL@semaphore4wait?$AA@ 1007e8b0     e4string.obj
 0003:000068c0       ??_C@_0BC@FGNN@semaphore4release?$AA@ 1007e8c0     e4string.obj
 0003:000068d4       ??_C@_0BD@JJJE@semaphore4initUndo?$AA@ 1007e8d4     e4string.obj
 0003:000068e8       ??_C@_0P@EBMC@semaphore4init?$AA@ 1007e8e8     e4string.obj
 0003:000068f8       ??_C@_0O@KEGB@code4getEvent?$AA@ 1007e8f8     e4string.obj
 0003:00006908       ??_C@_0P@DDGK@code4freeEvent?$AA@ 1007e908     e4string.obj
 0003:00006918       ??_C@_0P@MAJA@list4mutexWait?$AA@ 1007e918     e4string.obj
 0003:00006928       ??_C@_0BF@NMLL@list4mutexRemoveLink?$AA@ 1007e928     e4string.obj
 0003:00006940       ??_C@_0BB@BEAO@list4mutexRemove?$AA@ 1007e940     e4string.obj
 0003:00006954       ??_C@_0BC@BBLD@list4mutexRelease?$AA@ 1007e954     e4string.obj
 0003:00006968       ??_C@_0P@EOBJ@list4mutexInit?$AA@ 1007e968     e4string.obj
 0003:00006978       ??_C@_0O@EJJO@list4mutexAdd?$AA@ 1007e978     e4string.obj
 0003:00006988       ??_C@_0BD@EOAM@connect4threadInit?$AA@ 1007e988     e4string.obj
 0003:0000699c       ??_C@_0BL@CHIO@connect4bufferReadRetrieve?$AA@ 1007e99c     e4string.obj
 0003:000069b8       ??_C@_0BH@EC@connect4bufferInitRead?$AA@ 1007e9b8     e4string.obj
 0003:000069d0       ??_C@_0BH@HLHD@connect4bufferInitUndo?$AA@ 1007e9d0     e4string.obj
 0003:000069e8       ??_C@_0BD@CKOJ@connect4bufferInit?$AA@ 1007e9e8     e4string.obj
 0003:000069fc       ??_C@_0BN@ILMH@connect4bufferGetWriteBuffer?$AA@ 1007e9fc     e4string.obj
 0003:00006a1c       ??_C@_0BJ@FHLL@connect4bufferDisconnect?$AA@ 1007ea1c     e4string.obj
 0003:00006a38       ??_C@_0BG@BCIA@address4getLocalNetID?$AA@ 1007ea38     e4string.obj
 0003:00006a50       ??_C@_0BG@NEFN@connect4bufferConnect?$AA@ 1007ea50     e4string.obj
 0003:00006a68       ??_C@_0CE@JMEK@connect4bufferAuxConnectionSpeci@ 1007ea68     e4string.obj
 0003:00006a8c       ??_C@_0BP@CDEG@connect4bufferAuxConnectionGet?$AA@ 1007ea8c     e4string.obj
 0003:00006aac       ??_C@_0BM@NPLN@connect4bufferAuxConnection?$AA@ 1007eaac     e4string.obj
 0003:00006ac8       ??_C@_0BM@IEND@connect4lowWriteSynchronous?$AA@ 1007eac8     e4string.obj
 0003:00006ae4       ??_C@_0BN@BLLB@connect4lowWriteAsynchronous?$AA@ 1007eae4     e4string.obj
 0003:00006b04       ??_C@_0BM@KCJ@connect4lowReadAsynchronous?$AA@ 1007eb04     e4string.obj
 0003:00006b20       ??_C@_0BB@MKFG@connect4lowWrite?$AA@ 1007eb20     e4string.obj
 0003:00006b34       ??_C@_0BA@IOKI@connect4lowRead?$AA@ 1007eb34     e4string.obj
 0003:00006b44       ??_C@_0BC@EKMG@connect4lowListen?$AA@ 1007eb44     e4string.obj
 0003:00006b58       ??_C@_0BA@OEEF@connect4lowInit?$AA@ 1007eb58     e4string.obj
 0003:00006b68       ??_C@_0BD@OBEN@connect4lowConnect?$AA@ 1007eb68     e4string.obj
 0003:00006b7c       ??_C@_0BB@GFOJ@connect4lowClose?$AA@ 1007eb7c     e4string.obj
 0003:00006b90       ??_C@_0BG@MJBA@connect4lowAcceptWait?$AA@ 1007eb90     e4string.obj
 0003:00006ba8       ??_C@_0BC@MNJF@connect4lowAccept?$AA@ 1007eba8     e4string.obj
 0003:00006bbc       ??_C@_0BC@IMNC@address4makeNetID?$AA@ 1007ebbc     e4string.obj
 0003:00006bd0       ??_C@_0BB@GDDM@address4makeName?$AA@ 1007ebd0     e4string.obj
 0003:00006be4       ??_C@_0O@HNJA@account4?4?4?4?$CI?$CJ?$AA@ 1007ebe4     e4string.obj
 0003:00006bf4       ??_C@_0L@DMB@code4?4?4?4?$CI?$CJ?$AA@ 1007ebf4     e4string.obj
 0003:00006c00       ??_C@_07BNLD@d4?4?4?4?$CI?$CJ?$AA@ 1007ec00     e4string.obj
 0003:00006c08       ??_C@_0N@BGFI@error4code?$CI?$CJ?$AA@ 1007ec08     e4string.obj
 0003:00006c18       ??_C@_0M@CNKB@error4set?$CI?$CJ?$AA@ 1007ec18     e4string.obj
 0003:00006c24       ??_C@_0BA@EIAM@d4tagUniqueSync?$AA@ 1007ec24     e4string.obj
 0003:00006c34       ??_C@_08DHNI@d4remove?$AA@ 1007ec34     e4string.obj
 0003:00006c40       ??_C@_0BA@JCJB@code4dateFormat?$AA@ 1007ec40     e4string.obj
 0003:00006c50       ??_C@_0BD@GHLC@code4dateFormatSet?$AA@ 1007ec50     e4string.obj
 0003:00006c64       ??_C@_0M@OLDE@date4assign?$AA@ 1007ec64     e4string.obj
 0003:00006c70       ??_C@_06NHBD@l4seek?$AA@   1007ec70     e4string.obj
 0003:00006c78       ??_C@_08HGKM@l4remove?$AA@ 1007ec78     e4string.obj
 0003:00006c84       ??_C@_06NKON@l4prev?$AA@   1007ec84     e4string.obj
 0003:00006c8c       ??_C@_05PFNJ@l4pop?$AA@    1007ec8c     e4string.obj
 0003:00006c94       ??_C@_06CDGI@l4next?$AA@   1007ec94     e4string.obj
 0003:00006c9c       ??_C@_06KPDN@l4last?$AA@   1007ec9c     e4string.obj
 0003:00006ca4       ??_C@_07KFBA@l4first?$AA@  1007eca4     e4string.obj
 0003:00006cac       ??_C@_07PNHN@l4check?$AA@  1007ecac     e4string.obj
 0003:00006cb4       ??_C@_0M@KEEL@l4addBefore?$AA@ 1007ecb4     e4string.obj
 0003:00006cc0       ??_C@_0L@DCKF@l4addAfter?$AA@ 1007ecc0     e4string.obj
 0003:00006ccc       ??_C@_05LCC@l4add?$AA@     1007eccc     e4string.obj
 0003:00006cd4       ??_C@_0L@GIGA@l4lockSave?$AA@ 1007ecd4     e4string.obj
 0003:00006ce0       ??_C@_09MKBM@code4info?$AA@ 1007ece0     e4string.obj
 0003:00006cec       ??_C@_08MFAE@log4true?$AA@ 1007ecec     e4string.obj
 0003:00006cf8       ??_C@_0BA@GPNB@dataList4remove?$AA@ 1007ecf8     e4string.obj
 0003:00006d08       ??_C@_09JNBJ@mem4reset?$AA@ 1007ed08     e4string.obj
 0003:00006d14       ??_C@_0O@DOLN@u4freeDefault?$AA@ 1007ed14     e4string.obj
 0003:00006d24       ??_C@_0BB@PPLL@u4allocErDefault?$AA@ 1007ed24     e4string.obj
 0003:00006d38       ??_C@_0BA@LNFD@mem4freeDefault?$AA@ 1007ed38     e4string.obj
 0003:00006d48       ??_C@_0BC@CEHM@mem4createDefault?$AA@ 1007ed48     e4string.obj
 0003:00006d5c       ??_C@_0BB@KGPK@mem4allocDefault?$AA@ 1007ed5c     e4string.obj
 0003:00006d70       ??_C@_0O@GHFL@mem4freeCheck?$AA@ 1007ed70     e4string.obj
 0003:00006d80       ??_C@_0BA@BAHG@mem4checkMemory?$AA@ 1007ed80     e4string.obj
 0003:00006d90       ??_C@_0P@GECN@mem4popPointer?$AA@ 1007ed90     e4string.obj
 0003:00006da0       ??_C@_0BA@CPDL@mem4pushPointer?$AA@ 1007eda0     e4string.obj
 0003:00006db0       ??_C@_0N@FNAC@data4logOpen?$AA@ 1007edb0     e4string.obj
 0003:00006dc0       ??_C@_0N@KOMJ@t4blockCheck?$AA@ 1007edc0     e4string.obj
 0003:00006dd0       ??_C@_07GJLO@i4check?$AA@  1007edd0     e4string.obj
 0003:00006dd8       ??_C@_0M@JOLM@flag4blocks?$AA@ 1007edd8     e4string.obj
 0003:00006de4       ??_C@_07GAIK@t4check?$AA@  1007ede4     e4string.obj
 0003:00006dec       ??_C@_07IJNA@d4check?$AA@  1007edec     e4string.obj
 0003:00006df4       ??_C@_0O@HFDG@c4checkRecord?$AA@ 1007edf4     e4string.obj
 0003:00006e04       ??_C@_0L@KJI@tfile4lock?$AA@ 1007ee04     e4string.obj
 0003:00006e10       ??_C@_0N@MEFO@tfile4unlock?$AA@ 1007ee10     e4string.obj
 0003:00006e20       ??_C@_08LPCM@i4unlock?$AA@ 1007ee20     e4string.obj
 0003:00006e2c       ??_C@_06NCFL@i4lock?$AA@   1007ee2c     e4string.obj
 0003:00006e34       ??_C@_0N@EOEF@index4unlock?$AA@ 1007ee34     e4string.obj
 0003:00006e44       ??_C@_0L@GNNP@index4lock?$AA@ 1007ee44     e4string.obj
 0003:00006e50       ??_C@_0L@HKAO@code4index?$AA@ 1007ee50     e4string.obj
 0003:00006e5c       ??_C@_09LCHA@i4tagInfo?$AA@ 1007ee5c     e4string.obj
 0003:00006e68       ??_C@_0BE@GOOE@t4balanceBranchLeaf?$AA@ 1007ee68     e4string.obj
 0003:00006e7c       ??_C@_0BA@FNEE@t4balanceBranch?$AA@ 1007ee7c     e4string.obj
 0003:00006e8c       ??_C@_0N@LND@t4removeCalc?$AA@ 1007ee8c     e4string.obj
 0003:00006e9c       ??_C@_08LFDB@t4remove?$AA@ 1007ee9c     e4string.obj
 0003:00006ea8       ??_C@_09DJAI@t4addCalc?$AA@ 1007eea8     e4string.obj
 0003:00006eb4       ??_C@_05IFN@t4add?$AA@     1007eeb4     e4string.obj
 0003:00006ebc       ??_C@_0N@OFJ@i4getLastKey?$AA@ 1007eebc     e4string.obj
 0003:00006ecc       ??_C@_08GDDL@t4create?$AA@ 1007eecc     e4string.obj
 0003:00006ed8       ??_C@_08MIDC@i4create?$AA@ 1007eed8     e4string.obj
 0003:00006ee4       ??_C@_0O@JEID@memo4fileRead?$AA@ 1007eee4     e4string.obj
 0003:00006ef4       ??_C@_0P@OFEM@memo4fileWrite?$AA@ 1007eef4     e4string.obj
 0003:00006f04       ??_C@_0BD@MBCG@memo4fileWritePart?$AA@ 1007ef04     e4string.obj
 0003:00006f18       ??_C@_0BA@FIHB@memo4fileCreate?$AA@ 1007ef18     e4string.obj
 0003:00006f28       ??_C@_0M@CECA@f4memoCheck?$AA@ 1007ef28     e4string.obj
 0003:00006f34       ??_C@_0BD@LLP@memo4fileChainSkip?$AA@ 1007ef34     e4string.obj
 0003:00006f48       ??_C@_0N@BFKB@memo4lenPart?$AA@ 1007ef48     e4string.obj
 0003:00006f58       ??_C@_0BC@LBGP@d4validateMemoIds?$AA@ 1007ef58     e4string.obj
 0003:00006f6c       ??_C@_0P@HGPN@d4memoCompress?$AA@ 1007ef6c     e4string.obj
 0003:00006f7c       ??_C@_08PHIF@c4dtoa45?$AA@ 1007ef7c     e4string.obj
 0003:00006f88       ??_C@_0L@KEGJ@c4bcdFromA?$AA@ 1007ef88     e4string.obj
 0003:00006f94       ??_C@_09KLBG@c4descend?$AA@ 1007ef94     e4string.obj
 0003:00006fa0       ??_C@_0O@FAFG@c4descendDate?$AA@ 1007efa0     e4string.obj
 0003:00006fb0       ??_C@_0N@PLBF@c4descendStr?$AA@ 1007efb0     e4string.obj
 0003:00006fc0       ??_C@_0N@OOAB@c4descendNum?$AA@ 1007efc0     e4string.obj
 0003:00006fd0       ??_C@_06FDGM@e4hook?$AA@   1007efd0     e4string.obj
 0003:00006fd8       ??_C@_0L@BNOE@tfile4open?$AA@ 1007efd8     e4string.obj
 0003:00006fe4       ??_C@_08MCA@t4dumpDo?$AA@  1007efe4     e4string.obj
 0003:00006ff0       ??_C@_06DEFI@t4init?$AA@   1007eff0     e4string.obj
 0003:00006ff8       ??_C@_06PBAE@t4open?$AA@   1007eff8     e4string.obj
 0003:00007000       ??_C@_06BJMA@t4dump?$AA@   1007f000     e4string.obj
 0003:00007008       ??_C@_07GBAI@t4flush?$AA@  1007f008     e4string.obj
 0003:00007010       ??_C@_09IKPH@d4tagSync?$AA@ 1007f010     e4string.obj
 0003:0000701c       ??_C@_06OLFP@d4skip?$AA@   1007f01c     e4string.obj
 0003:00007024       ??_C@_0M@JJGP@d4skipRecno?$AA@ 1007f024     e4string.obj
 0003:00007030       ??_C@_0O@OIMB@d4positionSet?$AA@ 1007f030     e4string.obj
 0003:00007040       ??_C@_0L@ENAC@d4position?$AA@ 1007f040     e4string.obj
 0003:0000704c       ??_C@_09MCEO@d4zapData?$AA@ 1007f04c     e4string.obj
 0003:00007058       ??_C@_05CMA@d4zap?$AA@     1007f058     e4string.obj
 0003:00007060       ??_C@_0L@EOBD@d4packData?$AA@ 1007f060     e4string.obj
 0003:0000706c       ??_C@_06CKEB@d4pack?$AA@   1007f06c     e4string.obj
 0003:00007074       ??_C@_0L@BOLF@u4writeErr?$AA@ 1007f074     e4string.obj
 0003:00007080       ??_C@_09ODEB@u4nameFix?$AA@ 1007f080     e4string.obj
 0003:0000708c       ??_C@_0O@DDCC@u4nameCurrent?$AA@ 1007f08c     e4string.obj
 0003:0000709c       ??_C@_0M@DPMN@u4namePiece?$AA@ 1007f09c     e4string.obj
 0003:000070a8       ??_C@_09JHJN@u4nameExt?$AA@ 1007f0a8     e4string.obj
 0003:000070b4       ??_C@_0N@NKOA@u4nameRetExt?$AA@ 1007f0b4     e4string.obj
 0003:000070c4       ??_C@_08KCJ@u4rename?$AA@  1007f0c4     e4string.obj
 0003:000070d0       ??_C@_08PNBP@u4remove?$AA@ 1007f0d0     e4string.obj
 0003:000070dc       ??_C@_09PHOD@u4environ?$AA@ 1007f0dc     e4string.obj
 0003:000070e8       ??_C@_06EMJL@u4ncpy?$AA@   1007f0e8     e4string.obj
 0003:000070f0       ??_C@_0BE@DJAK@u4allocAgainDefault?$AA@ 1007f0f0     e4string.obj
 0003:00007104       ??_C@_0O@OOPC@relate4retain?$AA@ 1007f104     e4string.obj
 0003:00007114       ??_C@_0BC@NAII@relate4readBuffer?$AA@ 1007f114     e4string.obj
 0003:00007128       ??_C@_0BC@HFBO@relate4skipMaster?$AA@ 1007f128     e4string.obj
 0003:0000713c       ??_C@_0N@KBHN@relate4count?$AA@ 1007f13c     e4string.obj
 0003:0000714c       ??_C@_0P@NCFO@relate4sortSet?$AA@ 1007f14c     e4string.obj
 0003:0000715c       ??_C@_0BA@PNFP@relate4querySet?$AA@ 1007f15c     e4string.obj
 0003:0000716c       ??_C@_0BE@BJKM@relate4optimizeable?$AA@ 1007f16c     e4string.obj
 0003:00007180       ??_C@_0O@OKFF@relate4unpack?$AA@ 1007f180     e4string.obj
 0003:00007190       ??_C@_0O@HMGO@relate4unlock?$AA@ 1007f190     e4string.obj
 0003:000071a0       ??_C@_0M@PEPH@relate4type?$AA@ 1007f1a0     e4string.obj
 0003:000071ac       ??_C@_0L@BOO@relate4top?$AA@ 1007f1ac     e4string.obj
 0003:000071b8       ??_C@_0BC@JHD@relate4clientInit?$AA@ 1007f1b8     e4string.obj
 0003:000071cc       ??_C@_0L@LHEP@relate4add?$AA@ 1007f1cc     e4string.obj
 0003:000071d8       ??_C@_0M@ONOG@relate4sort?$AA@ 1007f1d8     e4string.obj
 0003:000071e4       ??_C@_0M@OLOC@relate4skip?$AA@ 1007f1e4     e4string.obj
 0003:000071f0       ??_C@_0BA@CFMG@relate4readRest?$AA@ 1007f1f0     e4string.obj
 0003:00007200       ??_C@_0BI@KLFH@relate4prevRecordInScan?$AA@ 1007f200     e4string.obj
 0003:00007218       ??_C@_0BI@JONB@relate4nextRecordInScan?$AA@ 1007f218     e4string.obj
 0003:00007230       ??_C@_0M@IONE@relate4next?$AA@ 1007f230     e4string.obj
 0003:0000723c       ??_C@_0BA@PHIN@relate4matchLen?$AA@ 1007f23c     e4string.obj
 0003:0000724c       ??_C@_0O@IGGD@relate4lookup?$AA@ 1007f24c     e4string.obj
 0003:0000725c       ??_C@_0M@LMMH@relate4lock?$AA@ 1007f25c     e4string.obj
 0003:00007268       ??_C@_0M@GOOH@relate4init?$AA@ 1007f268     e4string.obj
 0003:00007274       ??_C@_0BA@FFDB@relate4dataOpen?$AA@ 1007f274     e4string.obj
 0003:00007284       ??_C@_0M@KLFF@relate4free?$AA@ 1007f284     e4string.obj
 0003:00007290       ??_C@_0BD@EGBA@relate4errorAction?$AA@ 1007f290     e4string.obj
 0003:000072a4       ??_C@_0L@CEJA@relate4eof?$AA@ 1007f2a4     e4string.obj
 0003:000072b0       ??_C@_0N@JFEH@relate4doOne?$AA@ 1007f2b0     e4string.obj
 0003:000072c0       ??_C@_09NEFD@relate4do?$AA@ 1007f2c0     e4string.obj
 0003:000072cc       ??_C@_0BD@CNIN@relate4createSlave?$AA@ 1007f2cc     e4string.obj
 0003:000072e0       ??_C@_0P@IGNO@relate4changed?$AA@ 1007f2e0     e4string.obj
 0003:000072f0       ??_C@_0O@EGPA@relate4bottom?$AA@ 1007f2f0     e4string.obj
 0003:00007300       ??_C@_0BC@PFMC@client4indexSetup?$AA@ 1007f300     e4string.obj
 0003:00007314       ??_C@_06KLAG@d4open?$AA@   1007f314     e4string.obj
 0003:0000731c       ??_C@_0BA@KPNA@d4refreshRecord?$AA@ 1007f31c     e4string.obj
 0003:0000732c       ??_C@_09NFEG@d4refresh?$AA@ 1007f32c     e4string.obj
 0003:00007338       ??_C@_0M@DNNG@d4copyTable?$AA@ 1007f338     e4string.obj
 0003:00007344       ??_C@_0P@DAEO@d4updateRecord?$AA@ 1007f344     e4string.obj
 0003:00007354       ??_C@_08KDAI@d4update?$AA@ 1007f354     e4string.obj
 0003:00007360       ??_C@_0L@JGCA@code4flush?$AA@ 1007f360     e4string.obj
 0003:0000736c       ??_C@_0M@CCMN@d4flushData?$AA@ 1007f36c     e4string.obj
 0003:00007378       ??_C@_07IIFC@d4flush?$AA@  1007f378     e4string.obj
 0003:00007380       ??_C@_09LBDE@d4changed?$AA@ 1007f380     e4string.obj
 0003:0000738c       ??_C@_0O@IJBA@d4fieldNumber?$AA@ 1007f38c     e4string.obj
 0003:0000739c       ??_C@_08HCAP@d4fieldJ?$AA@ 1007f39c     e4string.obj
 0003:000073a8       ??_C@_07FJGO@d4field?$AA@  1007f3a8     e4string.obj
 0003:000073b0       ??_C@_0O@BBEH@message4alloc?$AA@ 1007f3b0     e4string.obj
 0003:000073c0       ??_C@_0M@MELJ@lock4verify?$AA@ 1007f3c0     e4string.obj
 0003:000073cc       ??_C@_0M@LLAD@code4verify?$AA@ 1007f3cc     e4string.obj
 0003:000073d8       ??_C@_0P@NEHJ@code4transInit?$AA@ 1007f3d8     e4string.obj
 0003:000073e8       ??_C@_0BD@CNHA@code4transInitUndo?$AA@ 1007f3e8     e4string.obj
 0003:000073fc       ??_C@_0BB@MGGM@code4tranInitLow?$AA@ 1007f3fc     e4string.obj
 0003:00007410       ??_C@_0BB@JJPN@code4transVerify?$AA@ 1007f410     e4string.obj
 0003:00007424       ??_C@_0BC@CHDM@code4tranRollback?$AA@ 1007f424     e4string.obj
 0003:00007438       ??_C@_0P@HPOM@code4tranStart?$AA@ 1007f438     e4string.obj
 0003:00007448       ??_C@_0BA@BCPK@code4tranCommit?$AA@ 1007f448     e4string.obj
 0003:00007458       ??_C@_0BA@KOAM@code4invalidate?$AA@ 1007f458     e4string.obj
 0003:00007468       ??_C@_0BC@DCBI@code4tranInitUndo?$AA@ 1007f468     e4string.obj
 0003:0000747c       ??_C@_0O@IKBC@code4tranInit?$AA@ 1007f47c     e4string.obj
 0003:0000748c       ??_C@_0L@MCIG@tran4?4?4?4?$CI?$CJ?$AA@ 1007f48c     e4string.obj
 0003:00007498       ??_C@_09DIJB@bmf4?4?4?4?$CI?$CJ?$AA@ 1007f498     e4string.obj
 0003:000074a4       ??_C@_0M@PAOF@const4?4?4?4?$CI?$CJ?$AA@ 1007f4a4     e4string.obj
 0003:000074b0       ??_C@_0N@JBOJ@bitmap4?4?4?4?$CI?$CJ?$AA@ 1007f4b0     e4string.obj
 0003:000074c0       ??_C@_09CPGG@cat4?4?4?4?$CI?$CJ?$AA@ 1007f4c0     e4string.obj
 0003:000074cc       ??_C@_08MHNG@code4log?$AA@ 1007f4cc     e4string.obj
 0003:000074d8       ??_C@_0BB@LCMA@code4logInitUndo?$AA@ 1007f4d8     e4string.obj
 0003:000074ec       ??_C@_0N@EHJB@code4logInit?$AA@ 1007f4ec     e4string.obj
 0003:000074fc       ??_C@_05PBOD@d4log?$AA@    1007f4fc     e4string.obj
 0003:00007504       ??_C@_0BB@CBMG@d4recCountLessEq?$AA@ 1007f504     e4string.obj
 0003:00007518       ??_C@_08DFBN@d4verify?$AA@ 1007f518     e4string.obj
 0003:00007524       ??_C@_0L@DHPD@d4recWidth?$AA@ 1007f524     e4string.obj
 0003:00007530       ??_C@_0O@FGKL@d4recPosition?$AA@ 1007f530     e4string.obj
 0003:00007540       ??_C@_08DCJJ@d4record?$AA@ 1007f540     e4string.obj
 0003:0000754c       ??_C@_07NLAH@d4recNo?$AA@  1007f54c     e4string.obj
 0003:00007554       ??_C@_0L@LMJP@d4recCount?$AA@ 1007f554     e4string.obj
 0003:00007560       ??_C@_08LCOB@d4recall?$AA@ 1007f560     e4string.obj
 0003:0000756c       ??_C@_09JHA@d4readOld?$AA@ 1007f56c     e4string.obj
 0003:00007578       ??_C@_06ELH@d4read?$AA@    1007f578     e4string.obj
 0003:00007580       ??_C@_0M@DINF@d4numFields?$AA@ 1007f580     e4string.obj
 0003:0000758c       ??_C@_05JJNH@d4eof?$AA@    1007f58c     e4string.obj
 0003:00007594       ??_C@_09KFFA@d4deleted?$AA@ 1007f594     e4string.obj
 0003:000075a0       ??_C@_08CMIF@d4delete?$AA@ 1007f5a0     e4string.obj
 0003:000075ac       ??_C@_05CHLG@d4bof?$AA@    1007f5ac     e4string.obj
 0003:000075b4       ??_C@_07NLD@d4blank?$AA@   1007f5b4     e4string.obj
 0003:000075bc       ??_C@_0L@LEGM@d4aliasSet?$AA@ 1007f5bc     e4string.obj
 0003:000075c8       ??_C@_07FEKA@d4alias?$AA@  1007f5c8     e4string.obj
 0003:000075d0       ??_C@_0L@IPBL@d4fileName?$AA@ 1007f5d0     e4string.obj
 0003:000075dc       ??_C@_07LEMC@d4goBof?$AA@  1007f5dc     e4string.obj
 0003:000075e4       ??_C@_07KKD@d4goEof?$AA@   1007f5e4     e4string.obj
 0003:000075ec       ??_C@_04KILF@d4go?$AA@     1007f5ec     e4string.obj
 0003:000075f4       ??_C@_09LIFP@d4reindex?$AA@ 1007f5f4     e4string.obj
 0003:00007600       ??_C@_07GEHM@d4index?$AA@  1007f600     e4string.obj
 0003:00007608       ??_C@_0N@HFMF@d4freeBlocks?$AA@ 1007f608     e4string.obj
 0003:00007618       ??_C@_0BB@LMBI@d4seekNextDouble?$AA@ 1007f618     e4string.obj
 0003:0000762c       ??_C@_0L@DPNN@d4seekNext?$AA@ 1007f62c     e4string.obj
 0003:00007638       ??_C@_06HKBC@d4seek?$AA@   1007f638     e4string.obj
 0003:00007640       ??_C@_0N@DDJM@d4seekServer?$AA@ 1007f640     e4string.obj
 0003:00007650       ??_C@_0M@CBDF@d4seekNextN?$AA@ 1007f650     e4string.obj
 0003:0000765c       ??_C@_0N@MHL@d4seekDouble?$AA@ 1007f65c     e4string.obj
 0003:0000766c       ??_C@_07PGHA@d4seekN?$AA@  1007f66c     e4string.obj
 0003:00007674       ??_C@_0M@BINC@code4unlock?$AA@ 1007f674     e4string.obj
 0003:00007680       ??_C@_0BA@BMFC@d4unlockRecords?$AA@ 1007f680     e4string.obj
 0003:00007690       ??_C@_0P@LLPP@d4unlockRecord?$AA@ 1007f690     e4string.obj
 0003:000076a0       ??_C@_0N@OBIJ@d4unlockFile?$AA@ 1007f6a0     e4string.obj
 0003:000076b0       ??_C@_0N@EODJ@d4unlockData?$AA@ 1007f6b0     e4string.obj
 0003:000076c0       ??_C@_0P@PGOA@d4unlockAppend?$AA@ 1007f6c0     e4string.obj
 0003:000076d0       ??_C@_08JGMM@d4unlock?$AA@ 1007f6d0     e4string.obj
 0003:000076dc       ??_C@_0N@FPFG@d4lock_group?$AA@ 1007f6dc     e4string.obj
 0003:000076ec       ??_C@_0P@BCJP@d4localLockSet?$AA@ 1007f6ec     e4string.obj
 0003:000076fc       ??_C@_0BB@IDBN@request4lockTest?$AA@ 1007f6fc     e4string.obj
 0003:00007710       ??_C@_09KMEJ@d4lockAdd?$AA@ 1007f710     e4string.obj
 0003:0000771c       ??_C@_0O@FNAG@d4lockAddFile?$AA@ 1007f71c     e4string.obj
 0003:0000772c       ??_C@_0BA@JFCJ@d4lockAddAppend?$AA@ 1007f72c     e4string.obj
 0003:0000773c       ??_C@_0L@JBFE@d4lockFile?$AA@ 1007f73c     e4string.obj
 0003:00007748       ??_C@_0N@COCI@d4lockAppend?$AA@ 1007f748     e4string.obj
 0003:00007758       ??_C@_0M@MKKC@d4lockIndex?$AA@ 1007f758     e4string.obj
 0003:00007764       ??_C@_0BA@LDPN@d4lockTestIndex?$AA@ 1007f764     e4string.obj
 0003:00007774       ??_C@_0P@MOFH@d4lockTestFile?$AA@ 1007f774     e4string.obj
 0003:00007784       ??_C@_0BB@LCFB@d4lockTestAppend?$AA@ 1007f784     e4string.obj
 0003:00007798       ??_C@_0L@OLHB@d4lockTest?$AA@ 1007f798     e4string.obj
 0003:000077a4       ??_C@_09ENKF@d4lockAll?$AA@ 1007f7a4     e4string.obj
 0003:000077b0       ??_C@_06LMHK@d4lock?$AA@   1007f7b0     e4string.obj
 0003:000077b8       ??_C@_0O@MCI@d4unwriteKeys?$AA@ 1007f7b8     e4string.obj
 0003:000077c8       ??_C@_0M@MEFI@d4writeKeys?$AA@ 1007f7c8     e4string.obj
 0003:000077d4       ??_C@_0M@FJCG@d4writeData?$AA@ 1007f7d4     e4string.obj
 0003:000077e0       ??_C@_07EGNM@d4write?$AA@  1007f7e0     e4string.obj
 0003:000077e8       ??_C@_0M@MHHD@code4optAll?$AA@ 1007f7e8     e4string.obj
 0003:000077f4       ??_C@_0N@HLHG@d4updatePrio?$AA@ 1007f7f4     e4string.obj
 0003:00007804       ??_C@_0BA@ONOK@code4freeBlocks?$AA@ 1007f804     e4string.obj
 0003:00007814       ??_C@_09POMA@opt4?4?4?4?$CI?$CJ?$AA@ 1007f814     e4string.obj
 0003:00007820       ??_C@_0BA@LJIP@d4optimizeWrite?$AA@ 1007f820     e4string.obj
 0003:00007830       ??_C@_0L@BNGC@d4optimize?$AA@ 1007f830     e4string.obj
 0003:0000783c       ??_C@_0BA@DCPA@code4optSuspend?$AA@ 1007f83c     e4string.obj
 0003:0000784c       ??_C@_0BA@LHFC@code4optRestart?$AA@ 1007f84c     e4string.obj
 0003:0000785c       ??_C@_0O@NNKP@code4optStart?$AA@ 1007f85c     e4string.obj
 0003:0000786c       ??_C@_0O@ONBA@d4tagSelected?$AA@ 1007f86c     e4string.obj
 0003:0000787c       ??_C@_0M@OABP@d4tagSelect?$AA@ 1007f87c     e4string.obj
 0003:00007888       ??_C@_09KEJP@d4tagPrev?$AA@ 1007f888     e4string.obj
 0003:00007894       ??_C@_09FNBK@d4tagNext?$AA@ 1007f894     e4string.obj
 0003:000078a0       ??_C@_0N@IJJG@d4tagDefault?$AA@ 1007f8a0     e4string.obj
 0003:000078b0       ??_C@_05ICJH@d4tag?$AA@    1007f8b0     e4string.obj
 0003:000078b8       ??_C@_05LMKJ@d4top?$AA@    1007f8b8     e4string.obj
 0003:000078c0       ??_C@_0M@GFLH@d4fieldInfo?$AA@ 1007f8c0     e4string.obj
 0003:000078cc       ??_C@_0P@GGLG@r4reindex?4?4?4?$CI?$CJ?$AA@ 1007f8cc     e4string.obj
 0003:000078dc       ??_C@_09GBHG@i4reindex?$AA@ 1007f8dc     e4string.obj
 0003:000078e8       ??_C@_0L@IMAN@d4password?$AA@ 1007f8e8     e4string.obj
 0003:000078f4       ??_C@_0O@JPNI@sort4initFree?$AA@ 1007f8f4     e4string.obj
 0003:00007904       ??_C@_0BB@JBOE@sort4getInitFree?$AA@ 1007f904     e4string.obj
 0003:00007918       ??_C@_0P@GMDE@sort4freeExtra?$AA@ 1007f918     e4string.obj
 0003:00007928       ??_C@_0BD@KGK@relate4freeBitmaps?$AA@ 1007f928     e4string.obj
 0003:0000793c       ??_C@_0BB@FGBK@s4nextSpoolEntry?$AA@ 1007f93c     e4string.obj
 0003:00007950       ??_C@_0BC@MEII@sort4initPointers?$AA@ 1007f950     e4string.obj
 0003:00007964       ??_C@_0P@OEAD@sort4initAlloc?$AA@ 1007f964     e4string.obj
 0003:00007974       ??_C@_0N@JN@sort4initSet?$AA@ 1007f974     e4string.obj
 0003:00007984       ??_C@_09PJGL@sort4init?$AA@ 1007f984     e4string.obj
 0003:00007990       ??_C@_0BA@DFGI@sort4spoolsInit?$AA@ 1007f990     e4string.obj
 0003:000079a0       ??_C@_0N@MADC@sort4getInit?$AA@ 1007f9a0     e4string.obj
 0003:000079b0       ??_C@_0BA@HGNP@sort4getMemInit?$AA@ 1007f9b0     e4string.obj
 0003:000079c0       ??_C@_09DMNJ@sort4free?$AA@ 1007f9c0     e4string.obj
 0003:000079cc       ??_C@_08JNGJ@sort4put?$AA@ 1007f9cc     e4string.obj
 0003:000079d8       ??_C@_08GIML@sort4get?$AA@ 1007f9d8     e4string.obj
 0003:000079e4       ??_C@_07KIOA@s4flush?$AA@  1007f9e4     e4string.obj
 0003:000079ec       ??_C@_0L@EBMC@i4fileName?$AA@ 1007f9ec     e4string.obj
 0003:000079f8       ??_C@_07JNDK@i4setup?$AA@  1007f9f8     e4string.obj
 0003:00007a00       ??_C@_0P@JCID@i4tagAssociate?$AA@ 1007fa00     e4string.obj
 0003:00007a10       ??_C@_08FACF@i4tagAdd?$AA@ 1007fa10     e4string.obj
 0003:00007a1c       ??_C@_0M@FCA@i4addOneTag?$AA@ 1007fa1c     e4string.obj
 0003:00007a28       ??_C@_06OAEI@i4next?$AA@   1007fa28     e4string.obj
 0003:00007a30       ??_C@_0BD@DJLP@index4isProduction?$AA@ 1007fa30     e4string.obj
 0003:00007a44       ??_C@_07GIDM@i4flush?$AA@  1007fa44     e4string.obj
 0003:00007a4c       ??_C@_0BD@FMBB@index4versionCheck?$AA@ 1007fa4c     e4string.obj
 0003:00007a60       ??_C@_0P@GOME@i4versionCheck?$AA@ 1007fa60     e4string.obj
 0003:00007a70       ??_C@_0BD@IMJD@index4updateHeader?$AA@ 1007fa70     e4string.obj
 0003:00007a84       ??_C@_05KDAN@i4tag?$AA@    1007fa84     e4string.obj
 0003:00007a8c       ??_C@_0N@EGCE@index4shrink?$AA@ 1007fa8c     e4string.obj
 0003:00007a9c       ??_C@_0L@HKKD@index4open?$AA@ 1007fa9c     e4string.obj
 0003:00007aa8       ??_C@_06MFCH@i4open?$AA@   1007faa8     e4string.obj
 0003:00007ab0       ??_C@_0N@HLIB@index4update?$AA@ 1007fab0     e4string.obj
 0003:00007ac0       ??_C@_0M@BID@index4flush?$AA@ 1007fac0     e4string.obj
 0003:00007acc       ??_C@_0N@GFON@index4extend?$AA@ 1007facc     e4string.obj
 0003:00007adc       ??_C@_0M@GALC@index4close?$AA@ 1007fadc     e4string.obj
 0003:00007ae8       ??_C@_07JAN@i4close?$AA@   1007fae8     e4string.obj
 0003:00007af0       ??_C@_0O@LAFE@t4strToVFPKey?$AA@ 1007faf0     e4string.obj
 0003:00007b00       ??_C@_0M@IPAF@tfile4?4?4?4?$CI?$CJ?$AA@ 1007fb00     e4string.obj
 0003:00007b0c       ??_C@_06HALI@t4expr?$AA@   1007fb0c     e4string.obj
 0003:00007b14       ??_C@_07LNPK@t4alias?$AA@  1007fb14     e4string.obj
 0003:00007b1c       ??_C@_08EPAL@t4unique?$AA@ 1007fb1c     e4string.obj
 0003:00007b28       ??_C@_0M@HLNF@tfile4close?$AA@ 1007fb28     e4string.obj
 0003:00007b34       ??_C@_07DJ@t4close?$AA@    1007fb34     e4string.obj
 0003:00007b3c       ??_C@_0N@OPPG@tfile4extend?$AA@ 1007fb3c     e4string.obj
 0003:00007b4c       ??_C@_0BF@CIDE@tfile4doVersionCheck?$AA@ 1007fb4c     e4string.obj
 0003:00007b64       ??_C@_09DHEI@tfile4key?$AA@ 1007fb64     e4string.obj
 0003:00007b70       ??_C@_0M@EACF@i4readBlock?$AA@ 1007fb70     e4string.obj
 0003:00007b7c       ??_C@_0BA@HDIB@tfile4outOfDate?$AA@ 1007fb7c     e4string.obj
 0003:00007b8c       ??_C@_0M@MKCC@t4uniqueSet?$AA@ 1007fb8c     e4string.obj
 0003:00007b98       ??_C@_0BD@NIMG@server4client?4?4?4?$CI?$CJ?$AA@ 1007fb98     e4string.obj
 0003:00007bac       ??_C@_0M@DJMH@d4authorize?$AA@ 1007fbac     e4string.obj
 0003:00007bb8       ??_C@_0N@JDKF@d4createTemp?$AA@ 1007fbb8     e4string.obj
 0003:00007bc8       ??_C@_08OBNC@d4create?$AA@ 1007fbc8     e4string.obj
 0003:00007bd4       ??_C@_0BG@IHCH@code4dataFileCloseAll?$AA@ 1007fbd4     e4string.obj
 0003:00007bec       ??_C@_07OJGD@d4close?$AA@  1007fbec     e4string.obj
 0003:00007bf4       ??_C@_08KMFC@d4bottom?$AA@ 1007fbf4     e4string.obj
 0003:00007c00       ??_C@_0BA@LPLP@code4serverName?$AA@ 1007fc00     e4string.obj
 0003:00007c10       ??_C@_0N@NNMG@code4version?$AA@ 1007fc10     e4string.obj
 0003:00007c20       ??_C@_0BB@KLJC@code4indexFormat?$AA@ 1007fc20     e4string.obj
 0003:00007c34       ??_C@_0L@IDIA@d4unappend?$AA@ 1007fc34     e4string.obj
 0003:00007c40       ??_C@_0O@HABL@d4appendStart?$AA@ 1007fc40     e4string.obj
 0003:00007c50       ??_C@_0N@PDDH@d4appendData?$AA@ 1007fc50     e4string.obj
 0003:00007c60       ??_C@_0O@IAKA@d4appendBlank?$AA@ 1007fc60     e4string.obj
 0003:00007c70       ??_C@_08HPIG@d4append?$AA@ 1007fc70     e4string.obj
 0003:00007c7c       ??_C@_0M@CHPJ@dfile4?4?4?4?$CI?$CJ?$AA@ 1007fc7c     e4string.obj
 0003:00007c88       ??_C@_0BD@KFFI@d4lockAppendRecord?$AA@ 1007fc88     e4string.obj
 0003:00007c9c       ??_C@_0BC@BDLN@code4memoCompress?$AA@ 1007fc9c     e4string.obj
 0003:00007cb0       ??_C@_0O@HG@code4validate?$AA@ 1007fcb0     e4string.obj
 0003:00007cc0       ??_C@_0M@BLNH@code4status?$AA@ 1007fcc0     e4string.obj
 0003:00007ccc       ??_C@_0P@OHLH@code4lockClear?$AA@ 1007fccc     e4string.obj
 0003:00007cdc       ??_C@_0BB@OIID@code4passwordSet?$AA@ 1007fcdc     e4string.obj
 0003:00007cf0       ??_C@_0BA@JBHG@code4logOpenOff?$AA@ 1007fcf0     e4string.obj
 0003:00007d00       ??_C@_0N@ICMN@code4logOpen?$AA@ 1007fd00     e4string.obj
 0003:00007d10       ??_C@_0BB@DPDO@code4logFileName?$AA@ 1007fd10     e4string.obj
 0003:00007d24       ??_C@_0P@HPJK@code4logCreate?$AA@ 1007fd24     e4string.obj
 0003:00007d34       ??_C@_0O@OGBI@code4lockItem?$AA@ 1007fd34     e4string.obj
 0003:00007d44       ??_C@_0BC@GGME@code4lockFileName?$AA@ 1007fd44     e4string.obj
 0003:00007d58       ??_C@_0BA@JENN@code4lockUserId?$AA@ 1007fd58     e4string.obj
 0003:00007d68       ??_C@_0BD@KKD@code4lockNetworkId?$AA@ 1007fd68     e4string.obj
 0003:00007d7c       ??_C@_09MOEM@code4lock?$AA@ 1007fd7c     e4string.obj
 0003:00007d88       ??_C@_0BA@KCOM@code4timeoutSet?$AA@ 1007fd88     e4string.obj
 0003:00007d98       ??_C@_0N@CEBN@code4timeout?$AA@ 1007fd98     e4string.obj
 0003:00007da8       ??_C@_0BB@DANO@code4userConnect?$AA@ 1007fda8     e4string.obj
 0003:00007dbc       ??_C@_0N@PFKI@code4connect?$AA@ 1007fdbc     e4string.obj
 0003:00007dcc       ??_C@_0O@LBOF@code4closeAll?$AA@ 1007fdcc     e4string.obj
 0003:00007ddc       ??_C@_0O@PJFC@code4initUndo?$AA@ 1007fddc     e4string.obj
 0003:00007dec       ??_C@_09BMGM@code4init?$AA@ 1007fdec     e4string.obj
 0003:00007df8       ??_C@_08PPMJ@expr4?4?4?4?$AA@ 1007fdf8     e4string.obj
 0003:00007e04       ??_C@_0P@KLMH@expr4calcReset?$AA@ 1007fe04     e4string.obj
 0003:00007e14       ??_C@_0BA@MMNK@expr4calcCreate?$AA@ 1007fe14     e4string.obj
 0003:00007e24       ??_C@_08HLKJ@expr4str?$AA@ 1007fe24     e4string.obj
 0003:00007e30       ??_C@_0N@NNME@expr4context?$AA@ 1007fe30     e4string.obj
 0003:00007e40       ??_C@_09LKAM@expr4true?$AA@ 1007fe40     e4string.obj
 0003:00007e4c       ??_C@_09BBDI@expr4vary?$AA@ 1007fe4c     e4string.obj
 0003:00007e58       ??_C@_0M@COHM@expr4keyLen?$AA@ 1007fe58     e4string.obj
 0003:00007e64       ??_C@_0M@KDEN@expr4double?$AA@ 1007fe64     e4string.obj
 0003:00007e70       ??_C@_08BNHE@expr4key?$AA@ 1007fe70     e4string.obj
 0003:00007e7c       ??_C@_0N@LHC@expr4execute?$AA@ 1007fe7c     e4string.obj
 0003:00007e8c       ??_C@_0P@HDKJ@s4stackPushStr?$AA@ 1007fe8c     e4string.obj
 0003:00007e9c       ??_C@_0BA@HOHI@expr4parseValue?$AA@ 1007fe9c     e4string.obj
 0003:00007eac       ??_C@_0BD@MKAA@expr4parseFunction?$AA@ 1007feac     e4string.obj
 0003:00007ec0       ??_C@_0P@JKAH@expr4parseExpr?$AA@ 1007fec0     e4string.obj
 0003:00007ed0       ??_C@_08KNPG@opToExpr?$AA@ 1007fed0     e4string.obj
 0003:00007edc       ??_C@_08CEOP@e4lookup?$AA@ 1007fedc     e4string.obj
 0003:00007ee8       ??_C@_0O@DGFF@e4getOperator?$AA@ 1007fee8     e4string.obj
 0003:00007ef8       ??_C@_0L@ONCE@expr4parse?$AA@ 1007fef8     e4string.obj
 0003:00007f04       ??_C@_0O@OFNN@e4functionAdd?$AA@ 1007ff04     e4string.obj
 0003:00007f14       ??_C@_0O@FDOF@e4addConstant?$AA@ 1007ff14     e4string.obj
 0003:00007f24       ??_C@_09DOAM@e4massage?$AA@ 1007ff24     e4string.obj
 0003:00007f30       ??_C@_0M@IKNA@f4flag?4?4?4?$CI?$CJ?$AA@ 1007ff30     e4string.obj
 0003:00007f3c       ??_C@_0BE@FOEG@file4seqWriteRepeat?$AA@ 1007ff3c     e4string.obj
 0003:00007f50       ??_C@_0BC@OKAE@file4seqWriteInit?$AA@ 1007ff50     e4string.obj
 0003:00007f64       ??_C@_0BD@DONG@file4seqWriteFlush?$AA@ 1007ff64     e4string.obj
 0003:00007f78       ??_C@_0O@BHDO@file4seqWrite?$AA@ 1007ff78     e4string.obj
 0003:00007f88       ??_C@_0BB@JKLO@file4seqReadInit?$AA@ 1007ff88     e4string.obj
 0003:00007f9c       ??_C@_0BA@IKNM@file4seqReadSll?$AA@ 1007ff9c     e4string.obj
 0003:00007fac       ??_C@_0N@OGNK@file4seqRead?$AA@ 1007ffac     e4string.obj
 0003:00007fbc       ??_C@_0BA@DEDH@file4writeDelay?$AA@ 1007ffbc     e4string.obj
 0003:00007fcc       ??_C@_09EKJN@file4temp?$AA@ 1007ffcc     e4string.obj
 0003:00007fd8       ??_C@_0P@PCMG@file4createLow?$AA@ 1007ffd8     e4string.obj
 0003:00007fe8       ??_C@_0P@BKJ@file4readError?$AA@ 1007ffe8     e4string.obj
 0003:00007ff8       ??_C@_0O@MPAG@file4lockHook?$AA@ 1007fff8     e4string.obj
 0003:00008008       ??_C@_0L@CEKB@file4write?$AA@ 10080008     e4string.obj
 0003:00008014       ??_C@_0N@FICK@file4tempLow?$AA@ 10080014     e4string.obj
 0003:00008024       ??_C@_0BD@NMBP@file4optimizeWrite?$AA@ 10080024     e4string.obj
 0003:00008038       ??_C@_0O@MKAO@file4optimize?$AA@ 10080038     e4string.obj
 0003:00008048       ??_C@_09NGBC@file4open?$AA@ 10080048     e4string.obj
 0003:00008054       ??_C@_0M@GKKO@file4unlock?$AA@ 10080054     e4string.obj
 0003:00008060       ??_C@_09MBGO@file4lock?$AA@ 10080060     e4string.obj
 0003:0000806c       ??_C@_0N@LJLK@file4refresh?$AA@ 1008006c     e4string.obj
 0003:0000807c       ??_C@_0L@OKCP@file4flush?$AA@ 1008007c     e4string.obj
 0003:00008088       ??_C@_0O@LGKC@file4lowFlush?$AA@ 10080088     e4string.obj
 0003:00008098       ??_C@_0N@KNON@file4replace?$AA@ 10080098     e4string.obj
 0003:000080a8       ??_C@_0N@ENPG@file4readAll?$AA@ 100800a8     e4string.obj
 0003:000080b8       ??_C@_09HJKD@file4read?$AA@ 100800b8     e4string.obj
 0003:000080c4       ??_C@_0M@MHGO@file4lenSet?$AA@ 100800c4     e4string.obj
 0003:000080d0       ??_C@_08IDBA@file4len?$AA@ 100800d0     e4string.obj
 0003:000080dc       ??_C@_0BA@MCHL@file4changeSize?$AA@ 100800dc     e4string.obj
 0003:000080ec       ??_C@_0L@DLPM@filelength?$AA@ 100800ec     e4string.obj
 0003:000080f8       ??_C@_0M@BNLA@file4create?$AA@ 100800f8     e4string.obj
 0003:00008104       ??_C@_0L@ILBO@file4close?$AA@ 10080104     e4string.obj
 0003:00008110       ??_C@_0L@CGMM@f4dateTime?$AA@ 10080110     e4string.obj
 0003:0000811c       ??_C@_0L@GDAJ@f4currency?$AA@ 1008011c     e4string.obj
 0003:00008128       ??_C@_0BB@PPKI@f4assignCurrency?$AA@ 10080128     e4string.obj
 0003:0000813c       ??_C@_06EJII@f4null?$AA@   1008013c     e4string.obj
 0003:00008144       ??_C@_0N@IDPJ@f4assignNull?$AA@ 10080144     e4string.obj
 0003:00008154       ??_C@_08CDGJ@f4number?$AA@ 10080154     e4string.obj
 0003:00008160       ??_C@_06PFIE@f4true?$AA@   10080160     e4string.obj
 0003:00008168       ??_C@_05PDKO@f4str?$AA@    10080168     e4string.obj
 0003:00008170       ??_C@_06KIHJ@f4ncpy?$AA@   10080170     e4string.obj
 0003:00008178       ??_C@_09EEBA@f4assignN?$AA@ 10080178     e4string.obj
 0003:00008184       ??_C@_08BKMF@f4assign?$AA@ 10080184     e4string.obj
 0003:00008190       ??_C@_05FJF@f4ptr?$AA@     10080190     e4string.obj
 0003:00008198       ??_C@_0M@OLCM@f4memoWrite?$AA@ 10080198     e4string.obj
 0003:000081a4       ??_C@_0N@HLKF@f4memoUpdate?$AA@ 100801a4     e4string.obj
 0003:000081b4       ??_C@_09GNFM@f4memoStr?$AA@ 100801b4     e4string.obj
 0003:000081c0       ??_C@_0N@GOIP@f4memoSetLen?$AA@ 100801c0     e4string.obj
 0003:000081d0       ??_C@_0M@OBF@f4memoReset?$AA@ 100801d0     e4string.obj
 0003:000081dc       ??_C@_0O@JLKF@f4memoReadLow?$AA@ 100801dc     e4string.obj
 0003:000081ec       ??_C@_0L@PEGJ@f4memoRead?$AA@ 100801ec     e4string.obj
 0003:000081f8       ??_C@_09JLGH@f4memoPtr?$AA@ 100801f8     e4string.obj
 0003:00008204       ??_C@_0L@HDOH@f4memoNcpy?$AA@ 10080204     e4string.obj
 0003:00008210       ??_C@_09EJHF@f4memoLen?$AA@ 10080210     e4string.obj
 0003:0000821c       ??_C@_0L@FLDG@f4memoFree?$AA@ 1008021c     e4string.obj
 0003:00008228       ??_C@_0M@CFKC@f4memoFlush?$AA@ 10080228     e4string.obj
 0003:00008234       ??_C@_0O@MJFI@f4memoAssignN?$AA@ 10080234     e4string.obj
 0003:00008244       ??_C@_0N@FCDF@f4memoAssign?$AA@ 10080244     e4string.obj
 0003:00008254       ??_C@_06JAIK@f4long?$AA@   10080254     e4string.obj
 0003:0000825c       ??_C@_0N@FKPL@f4assignLong?$AA@ 1008025c     e4string.obj
 0003:0000826c       ??_C@_05OLIG@f4int?$AA@    1008026c     e4string.obj
 0003:00008274       ??_C@_0M@JKJF@f4assignInt?$AA@ 10080274     e4string.obj
 0003:00008280       ??_C@_06NPAK@f4type?$AA@   10080280     e4string.obj
 0003:00008288       ??_C@_06MIDN@f4name?$AA@   10080288     e4string.obj
 0003:00008290       ??_C@_05NHIH@f4len?$AA@    10080290     e4string.obj
 0003:00008298       ??_C@_0L@IPPL@f4decimals?$AA@ 10080298     e4string.obj
 0003:000082a4       ??_C@_06MLAC@f4data?$AA@   100802a4     e4string.obj
 0003:000082ac       ??_C@_07FAJI@f4blank?$AA@  100802ac     e4string.obj
 0003:000082b4       ??_C@_0M@HEIG@f4assignPtr?$AA@ 100802b4     e4string.obj
 0003:000082c0       ??_C@_09LMHI@f4double2?$AA@ 100802c0     e4string.obj
 0003:000082cc       ??_C@_08MGMH@f4double?$AA@ 100802cc     e4string.obj
 0003:000082d8       ??_C@_0P@FONO@f4assignDouble?$AA@ 100802d8     e4string.obj
 0003:000082e8       ??_C@_06IDHP@f4char?$AA@   100802e8     e4string.obj
 0003:000082f0       ??_C@_0N@EJAO@f4assignChar?$AA@ 100802f0     e4string.obj
 0003:00008300       ??_C@_0O@BNIP@f4assignField?$AA@ 10080300     e4string.obj
 0003:00008310       ??_C@_07DKBC@x4?4?4?4?$CI?$CJ?$AA@ 10080310     e4string.obj
 0003:00008318       ??_C@_07PKMO@b4?4?4?4?$CI?$CJ?$AA@ 10080318     e4string.obj
 0003:00008320       ??_C@_09PNI@spx4?4?4?4?$CI?$CJ?$AA@ 10080320     e4string.obj
 0003:0000832c       ??_C@_09LNIL@ipx4?4?4?4?$CI?$CJ?$AA@ 1008032c     e4string.obj
 0003:00008338       ??_C@_0P@MIHO@socket4netFree?$AA@ 10080338     e4string.obj
 0003:00008348       ??_C@_0BA@ONII@socket4netYield?$AA@ 10080348     e4string.obj
 0003:00008358       ??_C@_0BO@JJGC@socket4netShutdownAdvertising?$AA@ 10080358     e4string.obj
 0003:00008378       ??_C@_0BA@MOHK@socket4net?4?4?4?$CI?$CJ?$AA@ 10080378     e4string.obj
 0003:00008388       ??_C@_0N@BJLM@socket4?4?4?4?$CI?$CJ?$AA@ 10080388     e4string.obj
 0003:00008398       ??_C@_0BB@NKDM@connection4?4?4?4?$CI?$CJ?$AA@ 10080398     e4string.obj
 0003:000083ac       ??_C@_0N@IENN@packet4?4?4?4?$CI?$CJ?$AA@ 100803ac     e4string.obj
 0003:000083bc       ??_C@_0P@GEND@code4unlockSet?$AA@ 100803bc     e4string.obj
 0003:000083cc       ??_C@_0O@GIEL@connection4id?$AA@ 100803cc     e4string.obj
 0003:000083dc       ??_C@_08MIP@d4socket?$AA@  100803dc     e4string.obj
 0003:000083e8       ??_C@_0BG@HGJG@unable?5to?5locate?5host?$AA@ 100803e8     e4string.obj
 0003:00008400       ??_C@_0CA@EKPL@Winsock?5unrecoverable?5operation?$AA@ 10080400     e4string.obj
 0003:00008420       ??_C@_0CJ@DFIP@Nonauthoritive?5DNS?5answer?5host?5n@ 10080420     e4string.obj
 0003:0000844c       ??_C@_0CG@ICED@Authoritive?5DNS?5answer?5host?5not?5@ 1008044c     e4string.obj
 0003:00008474       ??_C@_0BI@PIAL@Winsock?5not?5initialised?$AA@ 10080474     e4string.obj
 0003:0000848c       ??_C@_0DD@BICP@Winsock?5DLL?5does?5not?5support?5req@ 1008048c     e4string.obj
 0003:000084c0       ??_C@_0CD@KAKM@TCP?1IP?5network?5subsystem?5not?5rea@ 100804c0     e4string.obj
 0003:000084e4       ??_C@_0L@ELPL@WSAEREMOTE?$AA@ 100804e4     e4string.obj
 0003:000084f0       ??_C@_09MAPE@WSAESTALE?$AA@ 100804f0     e4string.obj
 0003:000084fc       ??_C@_09EDGJ@WSAEDQUOT?$AA@ 100804fc     e4string.obj
 0003:00008508       ??_C@_09EMMP@WSAEUSERS?$AA@ 10080508     e4string.obj
 0003:00008514       ??_C@_0M@JCAC@WSAEPROCLIM?$AA@ 10080514     e4string.obj
 0003:00008520       ??_C@_0N@BKLD@WSAENOTEMPTY?$AA@ 10080520     e4string.obj
 0003:00008530       ??_C@_0BB@DIFC@host?5unreachable?$AA@ 10080530     e4string.obj
 0003:00008544       ??_C@_0N@CHFC@WSAEHOSTDOWN?$AA@ 10080544     e4string.obj
 0003:00008554       ??_C@_0BA@CAFH@WSAENAMETOOLONG?$AA@ 10080554     e4string.obj
 0003:00008564       ??_C@_08KIHD@WSAELOOP?$AA@ 10080564     e4string.obj
 0003:00008570       ??_C@_0DG@FEA@Connection?5refused?0?5no?5server?5ru@ 10080570     e4string.obj
 0003:000085a8       ??_C@_0BN@OLCM@Connection?5request?5timed?5out?$AA@ 100805a8     e4string.obj
 0003:000085c8       ??_C@_0BB@CAGP@too?5many?5sockets?$AA@ 100805c8     e4string.obj
 0003:000085dc       ??_C@_0BJ@KIE@Socket?5has?5been?5shutdown?$AA@ 100805dc     e4string.obj
 0003:000085f8       ??_C@_0BI@MMLA@Socket?5is?5not?5connected?$AA@ 100805f8     e4string.obj
 0003:00008610       ??_C@_0BM@MMNL@Socket?5is?5already?5connected?$AA@ 10080610     e4string.obj
 0003:0000862c       ??_C@_0BN@OLGA@No?5buffer?5space?5is?5available?$AA@ 1008062c     e4string.obj
 0003:0000864c       ??_C@_0CD@PDCE@Connection?5was?5reset?5by?5other?5si@ 1008064c     e4string.obj
 0003:00008670       ??_C@_0BH@CAAD@Connection?5was?5aborted?$AA@ 10080670     e4string.obj
 0003:00008688       ??_C@_0CC@PFJF@TCP?1IP?5network?5dropped?5connectio@ 10080688     e4string.obj
 0003:000086ac       ??_C@_0CC@LAEC@TCP?1IP?5network?5can?5not?5be?5reache@ 100806ac     e4string.obj
 0003:000086d0       ??_C@_0CB@OPHH@TCP?1IP?5network?5subsystem?5is?5down@ 100806d0     e4string.obj
 0003:000086f4       ??_C@_0BM@EDIC@Local?5address?5not?5available?$AA@ 100806f4     e4string.obj
 0003:00008710       ??_C@_0BN@ICIN@Local?5address?5already?5in?5use?$AA@ 10080710     e4string.obj
 0003:00008730       ??_C@_0CM@FGBO@Address?5family?5not?5supported?5by?5@ 10080730     e4string.obj
 0003:0000875c       ??_C@_0BA@NEAC@WSAEPFNOSUPPORT?$AA@ 1008075c     e4string.obj
 0003:0000876c       ??_C@_0CE@KMHP@Socket?5type?5does?5not?5support?5opt@ 1008076c     e4string.obj
 0003:00008790       ??_C@_0BK@PHCN@Socket?5type?5not?5supported?$AA@ 10080790     e4string.obj
 0003:000087ac       ??_C@_0BH@FHHP@Protocol?5not?5supported?$AA@ 100807ac     e4string.obj
 0003:000087c4       ??_C@_0CO@IIKB@Protocol?5option?5not?5supported?5fo@ 100807c4     e4string.obj
 0003:000087f4       ??_C@_0BP@LOHO@Protocol?5wrong?5type?5for?5socket?$AA@ 100807f4     e4string.obj
 0003:00008814       ??_C@_0BI@HOKD@Datagram?5size?5too?5large?$AA@ 10080814     e4string.obj
 0003:0000882c       ??_C@_0BN@OMNM@Destination?5address?5required?$AA@ 1008082c     e4string.obj
 0003:0000884c       ??_C@_0BL@IBLH@Descriptor?5is?5not?5a?5socket?$AA@ 1008084c     e4string.obj
 0003:00008868       ??_C@_0CD@BLHI@Winsock?5call?5has?5already?5complet@ 10080868     e4string.obj
 0003:0000888c       ??_C@_0CB@IHJC@Blocking?5socket?5call?5in?5progress@ 1008088c     e4string.obj
 0003:000088b0       ??_C@_0BD@BHAI@Socket?5would?5block?$AA@ 100808b0     e4string.obj
 0003:000088c4       ??_C@_0CH@OHLP@No?5more?5file?5descriptors?5are?5ava@ 100808c4     e4string.obj
 0003:000088ec       ??_C@_0BG@LKEB@Invalid?5function?5call?$AA@ 100808ec     e4string.obj
 0003:00008904       ??_C@_0BI@EPNB@Argument?5size?5too?5small?$AA@ 10080904     e4string.obj
 0003:0000891c       ??_C@_0CH@PDO@Broadcast?5address?5without?5correc@ 1008091c     e4string.obj
 0003:00008944       ??_C@_07MDGA@WSABADF?$AA@  10080944     e4string.obj
 0003:0000894c       ??_C@_0BP@OOFM@Blocking?5socket?5call?5cancelled?$AA@ 1008094c     e4string.obj
 0003:0000896c       ??_C@_0EG@JKJD@CodeBase?5Define?5Switches?5Mismatc@ 1008096c     e4string.obj
 0003:000089b4       ??_C@_0P@EAEM@received?5error?$AA@ 100809b4     e4string.obj
 0003:000089c4       ??_C@_0BF@NKOK@server?5doesn?8t?5exist?$AA@ 100809c4     e4string.obj
 0003:000089dc       ??_C@_0CF@BLPN@server?5failed?5to?5reconnect?5to?5cl@ 100809dc     e4string.obj
 0003:00008a04       ??_C@_0CE@PANP@unable?5to?5initialize?5connect4buf@ 10080a04     e4string.obj
 0003:00008a28       ??_C@_06FNPG@send?$CI?$CJ?$AA@ 10080a28     e4string.obj
 0003:00008a30       ??_C@_0O@LNNK@getsockname?$CI?$CJ?$AA@ 10080a30     e4string.obj
 0003:00008a40       ??_C@_0BI@OMLA@can?8t?5connect?5to?5server?$AA@ 10080a40     e4string.obj
 0003:00008a58       ??_C@_0BA@CMON@gethostbyname?$CI?$CJ?$AA@ 10080a58     e4string.obj
 0003:00008a68       ??_C@_0BK@IFKJ@cannot?5set?5socket?5options?$AA@ 10080a68     e4string.obj
 0003:00008a84       ??_C@_0BI@KBF@unable?5to?5create?5socket?$AA@ 10080a84     e4string.obj
 0003:00008a9c       ??_C@_0EO@CLNK@Cannot?5perform?5data?5file?5structu@ 10080a9c     e4string.obj
 0003:00008aec       ??_C@_0CH@HJPF@dBASE?57?5data?5file?5format?5not?5sup@ 10080aec     e4string.obj
 0003:00008b14       ??_C@_0DP@PCLK@cannot?5call?5dfile4remove?5for?5a?5d@ 10080b14     e4string.obj
 0003:00008b54       ??_C@_0EK@NBHJ@cannot?5perform?5data?5file?5structu@ 10080b54     e4string.obj
 0003:00008ba0       ??_C@_0CH@MIA@system?5does?5not?5support?5negative@ 10080ba0     e4string.obj
 0003:00008bc8       ??_C@_0BB@CLDF@link?5not?5on?5list?$AA@ 10080bc8     e4string.obj
 0003:00008bdc       ??_C@_0BE@DJGG@corrupt?5linked?5list?$AA@ 10080bdc     e4string.obj
 0003:00008bf0       ??_C@_0CF@EAGG@removing?5lock?5which?5was?5never?5pl@ 10080bf0     e4string.obj
 0003:00008c18       ??_C@_0BJ@COKA@locking?5overlap?5detected?$AA@ 10080c18     e4string.obj
 0003:00008c34       ??_C@_0BF@EDEA@expression?5too?5large?$AA@ 10080c34     e4string.obj
 0003:00008c4c       ??_C@_0BL@EDID@freed?5memory?5not?5allocated?$AA@ 10080c4c     e4string.obj
 0003:00008c68       ??_C@_0CN@IBOO@S4LOCK_CHECK?5cannot?5be?5used?5with@ 10080c68     e4string.obj
 0003:00008c98       ??_C@_0BK@LJDP@zero?5paramater?5unexpected?$AA@ 10080c98     e4string.obj
 0003:00008cb4       ??_C@_0BJ@IAJF@S4MEMDBF?5related?5failure?$AA@ 10080cb4     e4string.obj
 0003:00008cd0       ??_C@_0BH@OOPI@corrupt?5memory?5pointer?$AA@ 10080cd0     e4string.obj
 0003:00008ce8       ??_C@_0BN@PEIG@unable?5to?5open?5data?5log?5file?$AA@ 10080ce8     e4string.obj
 0003:00008d08       ??_C@_0BG@FDEA@invalid?5data4log?5file?$AA@ 10080d08     e4string.obj
 0003:00008d20       ??_C@_0P@EBDL@tag?5is?5corrupt?$AA@ 10080d20     e4string.obj
 0003:00008d30       ??_C@_0BL@BHEG@expected?5record?5is?5missing?$AA@ 10080d30     e4string.obj
 0003:00008d4c       ??_C@_0CL@GDOB@database?5file?5is?5empty?5but?5tag?5h@ 10080d4c     e4string.obj
 0003:00008d78       ??_C@_0CJ@DCGP@clipper?5incompatible?5index?5file?5@ 10080d78     e4string.obj
 0003:00008da4       ??_C@_0CB@PHAG@identical?5keys?5in?5unique?5key?5tag@ 10080da4     e4string.obj
 0003:00008dc8       ??_C@_0CL@OJMO@record?5numbers?5out?5of?5order?5for?5@ 10080dc8     e4string.obj
 0003:00008df4       ??_C@_0BE@JFPD@tag?5is?5out?5of?5order?$AA@ 10080df4     e4string.obj
 0003:00008e08       ??_C@_0BD@HFAK@tag?5is?5out?5of?5date?$AA@ 10080e08     e4string.obj
 0003:00008e1c       ??_C@_0CB@FNAD@unexpected?5key?5evaluation?5length@ 10080e1c     e4string.obj
 0003:00008e40       ??_C@_0BP@HJHC@incorrect?5record?5number?5in?5tag?$AA@ 10080e40     e4string.obj
 0003:00008e60       ??_C@_0BJ@NIEK@lost?5block?5in?5index?5file?$AA@ 10080e60     e4string.obj
 0003:00008e7c       ??_C@_0CJ@CPAK@corrupted?5free?5block?5chain?5in?5in@ 10080e7c     e4string.obj
 0003:00008ea8       ??_C@_0CL@CDNJ@t4strToVFPKey?$CI?$CJ?5returned?5an?5inva@ 10080ea8     e4string.obj
 0003:00008ed4       ??_C@_0BP@OPGH@t4split?5distribution?5incorrect?$AA@ 10080ed4     e4string.obj
 0003:00008ef4       ??_C@_0BH@MMIF@record?5number?5mismatch?$AA@ 10080ef4     e4string.obj
 0003:00008f0c       ??_C@_0BL@ECDO@unexpected?5empty?5tag?5block?$AA@ 10080f0c     e4string.obj
 0003:00008f28       ??_C@_0CJ@HEEP@Unable?5to?5obtain?5required?5data?5f@ 10080f28     e4string.obj
 0003:00008f54       ??_C@_0BG@HELI@tag?5file?5already?5open?$AA@ 10080f54     e4string.obj
 0003:00008f6c       ??_C@_0DF@NAOC@For?5S4NDX?5version?0?5filter?5and?5de@ 10080f6c     e4string.obj
 0003:00008fa4       ??_C@_0O@EJPH@too?5many?5tags?$AA@ 10080fa4     e4string.obj
 0003:00008fb4       ??_C@_0CD@CJGB@block?5size?5is?5less?5than?51024?5byt@ 10080fb4     e4string.obj
 0003:00008fd8       ??_C@_0EA@PPGC@expression?1filter?5source?5length?5@ 10080fd8     e4string.obj
 0003:00009018       ??_C@_0BK@PFJG@tag?5expression?5is?5missing?$AA@ 10081018     e4string.obj
 0003:00009034       ??_C@_0DL@FPPI@invalid?5descending?5flag?5data?5?$CIsh@ 10081034     e4string.obj
 0003:00009070       ??_C@_0BJ@NHLN@invalid?5unique?5flag?5data?$AA@ 10081070     e4string.obj
 0003:0000908c       ??_C@_0BK@DAJH@wasted?5space?5in?5memo?5file?$AA@ 1008108c     e4string.obj
 0003:000090a8       ??_C@_0BG@GCIO@memo?5block?5used?5twice?$AA@ 100810a8     e4string.obj
 0003:000090c0       ??_C@_0BC@HDKJ@corrupt?5memo?5file?$AA@ 100810c0     e4string.obj
 0003:000090d4       ??_C@_0EA@LFFH@invalid?5memo?5size?5?$CItoo?5small?5or?5@ 100810d4     e4string.obj
 0003:00009114       ??_C@_0CJ@MMDI@?8CODE4?4memSizeBlock?8?5is?5an?5illeg@ 10081114     e4string.obj
 0003:00009140       ??_C@_0BP@LDGE@unsupported?5collating?5sequence?$AA@ 10081140     e4string.obj
 0003:00009160       ??_C@_0BI@ENPA@error?5in?5key?5evaluation?$AA@ 10081160     e4string.obj
 0003:00009178       ??_C@_0CC@ENCA@expression?1header?5length?5mismatc@ 10081178     e4string.obj
 0003:0000919c       ??_C@_0CH@DBBM@tag?5failed?5opening?5verification?5@ 1008119c     e4string.obj
 0003:000091c4       ??_C@_0CA@EHJ@non?9logical?5filter?5type?5invalid?$AA@ 100811c4     e4string.obj
 0003:000091e4       ??_C@_0CD@IFBN@expression?5length?5too?5long?5for?5t@ 100811e4     e4string.obj
 0003:00009208       ??_C@_0CL@PFHD@expression?5length?5doesn?8t?5match?5@ 10081208     e4string.obj
 0003:00009234       ??_C@_0CL@NPAA@skip?5must?5be?5made?5from?5valid?5rec@ 10081234     e4string.obj
 0003:00009260       ??_C@_0DH@CDAJ@expected?5environment?5variable?5no@ 10081260     e4string.obj
 0003:00009298       ??_C@_0DN@MOEO@backwards?5skip?5attempted?5without@ 10081298     e4string.obj
 0003:000092d8       ??_C@_0BG@JAFM@invalid?5relation?5type?$AA@ 100812d8     e4string.obj
 0003:000092f0       ??_C@_0BE@KGEA@empty?5relation?5tree?$AA@ 100812f0     e4string.obj
 0003:00009304       ??_C@_0ED@CIML@attempt?5to?5create?5relations?5accr@ 10081304     e4string.obj
 0003:00009348       ??_C@_0BE@GFEG@Non?9freed?5data?5list?$AA@ 10081348     e4string.obj
 0003:0000935c       ??_C@_0EB@HEDL@relate4matchLen?$CI?$CJ?5can?5only?5be?5ca@ 1008135c     e4string.obj
 0003:000093a0       ??_C@_0CA@HPKF@RELATE4?9?$DOerrorAction?5is?5invalid?$AA@ 100813a0     e4string.obj
 0003:000093c0       ??_C@_0CF@LHFF@RELATE4?9?$DOmaster?5is?5unexpectedly?5@ 100813c0     e4string.obj
 0003:000093e8       ??_C@_0BP@LOHG@exitting?5from?5within?5lock?5wait?$AA@ 100813e8     e4string.obj
 0003:00009408       ??_C@_0BJ@CABM@data?5file?5name?5not?5found?$AA@ 10081408     e4string.obj
 0003:00009424       ??_C@_0BF@PGKH@invalid?5error?5action?$AA@ 10081424     e4string.obj
 0003:0000943c       ??_C@_0CC@IBAK@relate4top?$CI?$CJ?5must?5be?5called?5firs@ 1008143c     e4string.obj
 0003:00009460       ??_C@_0EK@PAFN@input?5relate?5must?5be?5created?5wit@ 10081460     e4string.obj
 0003:000094ac       ??_C@_0EG@FDAD@relate4createSlave?$CI?$CJ?5?9?5master?5ex@ 100814ac     e4string.obj
 0003:000094f4       ??_C@_0GA@FJCH@Called?5relate4createSlave?$CI?$CJ?5with@ 100814f4     e4string.obj
 0003:00009554       ??_C@_0EK@DONL@input?5relate?5must?5be?5created?5wit@ 10081554     e4string.obj
 0003:000095a0       ??_C@_0CG@IDG@relation?5client?5initialization?5f@ 100815a0     e4string.obj
 0003:000095c8       ??_C@_0CI@JAGP@invalid?5communication?5message?5ty@ 100815c8     e4string.obj
 0003:000095f0       ??_C@_0BI@NIFI@data?5file?5has?5no?5fields?$AA@ 100815f0     e4string.obj
 0003:00009608       ??_C@_0CE@NMGB@input?5name?5is?5longer?5than?5allowa@ 10081608     e4string.obj
 0003:0000962c       ??_C@_0HA@HCLF@attempt?5to?5get?5an?5additional?5han@ 1008162c     e4string.obj
 0003:0000969c       ??_C@_0ED@HAOP@data?5file?5shorter?5than?5required?5@ 1008169c     e4string.obj
 0003:000096e0       ??_C@_0CE@BPNP@invalid?5communication?5data?5recei@ 100816e0     e4string.obj
 0003:00009704       ??_C@_0CM@CGK@invalid?5communication?5message?5ty@ 10081704     e4string.obj
 0003:00009730       ??_C@_0BM@CNHG@required?5server?5unavailable?$AA@ 10081730     e4string.obj
 0003:0000974c       ??_C@_0BL@HKJP@default?5server?5unavailable?$AA@ 1008174c     e4string.obj
 0003:00009768       ??_C@_0CE@LBPO@input?5name?5exceeds?5allowable?5len@ 10081768     e4string.obj
 0003:0000978c       ??_C@_0GH@FDND@Your?5current?5version?5of?5CodeBase@ 1008178c     e4string.obj
 0003:000097f4       ??_C@_0DG@HLCH@exceeded?5maximum?5allowable?5users@ 100817f4     e4string.obj
 0003:0000982c       ??_C@_0FD@KNEA@invalid?5transaction?5file?9?9cannot@ 1008182c     e4string.obj
 0003:00009880       ??_C@_0DJ@PKDP@cannot?5begin?5transactions?5becaus@ 10081880     e4string.obj
 0003:000098bc       ??_C@_0DO@DJEC@an?5active?5transaction?5already?5ex@ 100818bc     e4string.obj
 0003:000098fc       ??_C@_0CA@LKGO@no?5active?5transaction?5to?5commit?$AA@ 100818fc     e4string.obj
 0003:0000991c       ??_C@_0CM@GAEI@attempt?5to?5complete?5non?9partial?5@ 1008191c     e4string.obj
 0003:00009948       ??_C@_0DF@JJML@attempt?5to?5re?9commit?5partially?5c@ 10081948     e4string.obj
 0003:00009980       ??_C@_0CE@BCNE@corrupted?5transaction?5file?5detec@ 10081980     e4string.obj
 0003:000099a4       ??_C@_0CC@DNFC@no?5active?5transaction?5to?5rollbac@ 100819a4     e4string.obj
 0003:000099c8       ??_C@_0CB@KKPD@transactions?1logging?5not?5enabled@ 100819c8     e4string.obj
 0003:000099ec       ??_C@_0BP@MNEI@unexpected?5record?5d4go?5failure?$AA@ 100819ec     e4string.obj
 0003:00009a0c       ??_C@_0BN@KOHK@database?5corruption?5detected?$AA@ 10081a0c     e4string.obj
 0003:00009a2c       ??_C@_0BN@GAEP@expected?5record?5lock?5missing?$AA@ 10081a2c     e4string.obj
 0003:00009a4c       ??_C@_0CE@OGHP@failure?5to?5find?5specified?5transI@ 10081a4c     e4string.obj
 0003:00009a70       ??_C@_0BN@GJCO@invalid?5transaction?5position?$AA@ 10081a70     e4string.obj
 0003:00009a90       ??_C@_0DA@PLCD@invalid?5transaction?5file?5?9?5run?5r@ 10081a90     e4string.obj
 0003:00009ac0       ??_C@_0BI@MGCG@corrupt?5bitmap?5detected?$AA@ 10081ac0     e4string.obj
 0003:00009ad8       ??_C@_0BF@GEAA@incompatible?5bitmaps?$AA@ 10081ad8     e4string.obj
 0003:00009af0       ??_C@_0BH@PHJP@expression?5incongruity?$AA@ 10081af0     e4string.obj
 0003:00009b08       ??_C@_0BE@DJPF@memory?5out?5of?5range?$AA@ 10081b08     e4string.obj
 0003:00009b1c       ??_C@_0BK@CPE@invalid?5expression?5length?$AA@ 10081b1c     e4string.obj
 0003:00009b38       ??_C@_0BL@NDMJ@invalid?5catalog?5entry?5type?$AA@ 10081b38     e4string.obj
 0003:00009b54       ??_C@_0CE@ELEP@catalog?5file?5?9?5entry?5does?5not?5ex@ 10081b54     e4string.obj
 0003:00009b78       ??_C@_0BF@MCBP@invalid?5catalog?5file?$AA@ 10081b78     e4string.obj
 0003:00009b90       ??_C@_0BA@KEEP@duplicate?5alias?$AA@ 10081b90     e4string.obj
 0003:00009ba0       ??_C@_0BP@OLKG@invalid?5deletion?5flag?5detected?$AA@ 10081ba0     e4string.obj
 0003:00009bc0       ??_C@_0CG@NEFC@number?5records?5unknown?5at?5update@ 10081bc0     e4string.obj
 0003:00009be8       ??_C@_0CB@EING@server?5returned?5incorrect?5record@ 10081be8     e4string.obj
 0003:00009c0c       ??_C@_0BA@EAF@wrong?5TAG4?5type?$AA@ 10081c0c     e4string.obj
 0003:00009c1c       ??_C@_0BP@BBKF@invalid?5key?5type?5in?5index?5file?$AA@ 10081c1c     e4string.obj
 0003:00009c3c       ??_C@_0FE@IEEP@internal?5error?5has?5caused?5index?5@ 10081c3c     e4string.obj
 0003:00009c90       ??_C@_0DD@JDAN@attempt?5to?5d4write?5record?5to?5a?5n@ 10081c90     e4string.obj
 0003:00009cc4       ??_C@_0BK@LCDJ@optimized?5file?5corruption?$AA@ 10081cc4     e4string.obj
 0003:00009ce0       ??_C@_0N@ECAE@invalid?5mode?$AA@ 10081ce0     e4string.obj
 0003:00009cf0       ??_C@_0DD@HBOD@CODE4?5optimization?5initializatio@ 10081cf0     e4string.obj
 0003:00009d24       ??_C@_0CC@ODPG@key?5length?5is?5not?5a?5multiple?5of?5@ 10081d24     e4string.obj
 0003:00009d48       ??_C@_0DJ@HFEM@expression?5source?5length?5?$DO?5max?5a@ 10081d48     e4string.obj
 0003:00009d84       ??_C@_0CC@NNBP@block?5Size?5too?5Large?5for?5Indexin@ 10081d84     e4string.obj
 0003:00009da8       ??_C@_0CA@PLCD@invalid?5number?5of?5keys?5in?5block?$AA@ 10081da8     e4string.obj
 0003:00009dc8       ??_C@_0BD@BCAD@error?5creating?5tag?$AA@ 10081dc8     e4string.obj
 0003:00009ddc       ??_C@_0EA@DILE@expression?5key?5is?5larger?5than?5ma@ 10081ddc     e4string.obj
 0003:00009e1c       ??_C@_0BI@KECF@corrupt?5S4FOX?5?4idx?5file?$AA@ 10081e1c     e4string.obj
 0003:00009e34       ??_C@_0DI@OGCN@sort4initAlloc?$CI?$CJ?5called?5but?5sort@ 10081e34     e4string.obj
 0003:00009e6c       ??_C@_0BE@HFOK@error?5in?5quick?5sort?$AA@ 10081e6c     e4string.obj
 0003:00009e80       ??_C@_0EP@HPDA@Cannot?5close?5a?5production?5index?5@ 10081e80     e4string.obj
 0003:00009ed0       ??_C@_0FL@NHMI@Invalid?5extension?5on?5file?5name?5t@ 10081ed0     e4string.obj
 0003:00009f2c       ??_C@_0EL@GAMN@t4open?$CI?$CJ?1t4close?$CI?$CJ?5unsupported?5f@ 10081f2c     e4string.obj
 0003:00009f78       ??_C@_0DD@PNDF@Code4?3?3errDefaultUnique?5is?5set?5t@ 10081f78     e4string.obj
 0003:00009fac       ??_C@_0BF@OMHO@empty?5string?5invalid?$AA@ 10081fac     e4string.obj
 0003:00009fc4       ??_C@_0CG@KBAA@index?5file?5verification?5checks?5f@ 10081fc4     e4string.obj
 0003:00009fec       ??_C@_0CB@GEJO@unexpected?5?5null?5file?5name?5found@ 10081fec     e4string.obj
 0003:0000a010       ??_C@_0BN@KBKB@root?5?$DM?$DN?50L?0?5or?5typeCode?5?$DM?532?$AA@ 10082010     e4string.obj
 0003:0000a030       ??_C@_0CB@IFCN@tag?5already?5exists?5in?5index?5file@ 10082030     e4string.obj
 0003:0000a054       ??_C@_0BO@KNDD@flag?5should?5be?5?8r4descending?8?$AA@ 10082054     e4string.obj
 0003:0000a074       ??_C@_0CK@MMBG@unique?5flag?5data?5is?5an?5unrecogni@ 10082074     e4string.obj
 0003:0000a0a0       ??_C@_0BJ@JCMJ@error?5closing?5group?5file?$AA@ 100820a0     e4string.obj
 0003:0000a0bc       ??_C@_0BJ@CAKO@error?5reading?5group?5file?$AA@ 100820bc     e4string.obj
 0003:0000a0d8       ??_C@_0EE@HGL@set?5CODE4?3?3autoOpen?5to?5?8off?8?5as?5@ 100820d8     e4string.obj
 0003:0000a11c       ??_C@_0DH@NPED@expected?5compound?5?$CI?4cdx?$CJ?5file?5is@ 1008211c     e4string.obj
 0003:0000a154       ??_C@_0BI@JIKK@invalid?5connection?5type?$AA@ 10082154     e4string.obj
 0003:0000a16c       ??_C@_0DJ@BMEC@unable?5to?5connect?5to?5a?5server?5wh@ 1008216c     e4string.obj
 0003:0000a1a8       ??_C@_0BI@BJOF@index?5file?5already?5open?$AA@ 100821a8     e4string.obj
 0003:0000a1c0       ??_C@_0CI@FPEJ@attempt?5to?5close?5an?5unopened?5ind@ 100821c0     e4string.obj
 0003:0000a1e8       ??_C@_0BO@CEFB@communication?5receive?5failure?$AA@ 100821e8     e4string.obj
 0003:0000a208       ??_C@_0DK@CFAA@code?5page?5unsupported?4?5?5foreign?5@ 10082208     e4string.obj
 0003:0000a244       ??_C@_0DD@NENK@cannot?5assign?5a?5unqiue?5setting?5t@ 10082244     e4string.obj
 0003:0000a278       ??_C@_0DA@HOOB@cannot?5perform?5t4uniqueSet?5withi@ 10082278     e4string.obj
 0003:0000a2a8       ??_C@_0FA@HJCO@index?5file?5is?5exclusive?0?5locked?0@ 100822a8     e4string.obj
 0003:0000a2f8       ??_C@_0EO@DMPN@index?5file?5is?5exclusive?0?5locked?0@ 100822f8     e4string.obj
 0003:0000a348       ??_C@_0FA@DPMH@S4SINGLE?5library?5cannot?5have?5out@ 10082348     e4string.obj
 0003:0000a398       ??_C@_0BB@LLEB@illegal?5position?$AA@ 10082398     e4string.obj
 0003:0000a3ac       ??_C@_0BI@FCIN@block?5memory?5corruption?$AA@ 100823ac     e4string.obj
 0003:0000a3c4       ??_C@_0BN@HKCG@illegal?5file?5block?5reference?$AA@ 100823c4     e4string.obj
 0003:0000a3e4       ??_C@_0BD@OBMJ@corrupt?5index?5file?$AA@ 100823e4     e4string.obj
 0003:0000a3f8       ??_C@_0DG@JNOE@WAIT4EVER?5lock?5conflicts?5with?5ow@ 100823f8     e4string.obj
 0003:0000a430       ??_C@_0CM@IKHM@cannot?5perform?5i4close?5within?5a?5@ 10082430     e4string.obj
 0003:0000a45c       ??_C@_0CN@MICK@cannot?5perform?5d4remove?5within?5a@ 1008245c     e4string.obj
 0003:0000a48c       ??_C@_0DG@GILA@cannot?5perform?5d4remove?5due?5to?5a@ 1008248c     e4string.obj
 0003:0000a4c4       ??_C@_0DE@FHFB@cannot?5perform?5d4pack?5due?5to?5a?5t@ 100824c4     e4string.obj
 0003:0000a4f8       ??_C@_0DF@JDCA@cannot?5perform?5d4check?5due?5to?5a?5@ 100824f8     e4string.obj
 0003:0000a530       ??_C@_0CH@OENJ@relate?5referred?5to?5by?5client?5not@ 10082530     e4string.obj
 0003:0000a558       ??_C@_0BJ@GLNH@relation?5set?9up?5failed?$CK?1?$AA@ 10082558     e4string.obj
 0003:0000a574       ??_C@_0CJ@EDJF@relation?5referred?5to?5by?5client?5n@ 10082574     e4string.obj
 0003:0000a5a0       ??_C@_0BL@PJBO@failure?5to?5create?5relation?$AA@ 100825a0     e4string.obj
 0003:0000a5bc       ??_C@_0CD@NJOC@unexpected?5null?5expression?5inval@ 100825bc     e4string.obj
 0003:0000a5e0       ??_C@_0DB@HEMD@tag?5name?5referred?5to?5?$CIin?5relatio@ 100825e0     e4string.obj
 0003:0000a614       ??_C@_0DC@HHGO@data?5name?5referred?5to?5?$CIin?5relati@ 10082614     e4string.obj
 0003:0000a648       ??_C@_0DE@KEJF@attempt?5to?5append?5a?5record?5using@ 10082648     e4string.obj
 0003:0000a67c       ??_C@_0CA@NEKI@invalid?5user?5authorization?5file?$AA@ 1008267c     e4string.obj
 0003:0000a69c       ??_C@_0BI@NDHE@structure?5size?5mismatch?$AA@ 1008269c     e4string.obj
 0003:0000a6b4       ??_C@_0BI@GNBN@invalid?5unlockAuto?5type?$AA@ 100826b4     e4string.obj
 0003:0000a6cc       ??_C@_0BC@CBPN@invalid?5lock?5type?$AA@ 100826cc     e4string.obj
 0003:0000a6e0       ??_C@_0DO@DCOE@cannot?5perform?5action?5due?5to?5oth@ 100826e0     e4string.obj
 0003:0000a720       ??_C@_0DD@GKGK@cannot?5zap?5data?5file?5due?5to?5a?5tr@ 10082720     e4string.obj
 0003:0000a754       ??_C@_0DI@NDHE@cannot?5compress?5memo?5file?5due?5to@ 10082754     e4string.obj
 0003:0000a78c       ??_C@_0HA@IMKH@r4autoTimestamp?5option?5set?5for?5n@ 1008278c     e4string.obj
 0003:0000a7fc       ??_C@_0DG@KFBP@cannot?5have?5more?5than?51?5field?5wi@ 100827fc     e4string.obj
 0003:0000a834       ??_C@_0FK@KJCL@r4autoIncrement?5option?5set?5for?5n@ 10082834     e4string.obj
 0003:0000a890       ??_C@_0DK@KOIH@cannot?5have?5more?5than?51?5field?5wi@ 10082890     e4string.obj
 0003:0000a8cc       ??_C@_0DC@JNFK@field?5function?5not?5supported?5for@ 100828cc     e4string.obj
 0003:0000a900       ??_C@_0CK@LLDA@too?5many?5fields?5on?5unnamed?5tempo@ 10082900     e4string.obj
 0003:0000a92c       ??_C@_0CI@MOFG@create?5failed?5on?5unnamed?5tempora@ 1008292c     e4string.obj
 0003:0000a954       ??_C@_0O@IMAI@tag?5not?5found?$AA@ 10082954     e4string.obj
 0003:0000a964       ??_C@_0BA@PNLM@too?5many?5fields?$AA@ 10082964     e4string.obj
 0003:0000a974       ??_C@_0BD@PJEN@illegal?5field?5data?$AA@ 10082974     e4string.obj
 0003:0000a988       ??_C@_0BF@GJCL@catalog?5file?5invalid?$AA@ 10082988     e4string.obj
 0003:0000a9a0       ??_C@_0BP@HALK@required?5catalog?5file?5not?5open?$AA@ 100829a0     e4string.obj
 0003:0000a9c0       ??_C@_0BG@PLBK@datafile?5already?5open?$AA@ 100829c0     e4string.obj
 0003:0000a9d8       ??_C@_0ED@DOFM@cannot?5create?1remove?5tag?1file?5fo@ 100829d8     e4string.obj
 0003:0000aa1c       ??_C@_0DA@CNHB@data?5has?5link?5but?5not?5the?5expect@ 10082a1c     e4string.obj
 0003:0000aa4c       ??_C@_0DJ@EHGD@attempt?5to?5create?5file?5which?5is?5@ 10082a4c     e4string.obj
 0003:0000aa88       ??_C@_0DI@GLGA@unable?5to?5connect?5to?5a?5server?5wh@ 10082a88     e4string.obj
 0003:0000aac0       ??_C@_0CB@JPIP@attempt?5to?5create?5open?5data?5file@ 10082ac0     e4string.obj
 0003:0000aae4       ??_C@_0BO@EFPH@code4init?5has?5not?5been?5called?$AA@ 10082ae4     e4string.obj
 0003:0000ab04       ??_C@_0CC@LIJL@d4appendStart?$CI?$CJ?5was?5not?5complete@ 10082b04     e4string.obj
 0003:0000ab28       ??_C@_0CP@CPKI@server?5index?5file?5format?5unsuppo@ 10082b28     e4string.obj
 0003:0000ab58       ??_C@_0BO@EPDH@memo?5file?5not?5open?5for?5append?$AA@ 10082b58     e4string.obj
 0003:0000ab78       ??_C@_0GN@OLNH@code4connect?$CI?$CJ?5cannot?5be?5called?5@ 10082b78     e4string.obj
 0003:0000abe8       ??_C@_0BJ@EGLF@Communications?5timed?5out?$AA@ 10082be8     e4string.obj
 0003:0000ac04       ??_C@_0FB@HFC@protocol?5name?5too?5long?5or?5missin@ 10082c04     e4string.obj
 0003:0000ac58       ??_C@_0CB@PLNF@no?5valid?5CODE4?5structures?5exist?4@ 10082c58     e4string.obj
 0003:0000ac7c       ??_C@_0CM@LOFG@stack?5length?5variable?5_stklen?5be@ 10082c7c     e4string.obj
 0003:0000aca8       ??_C@_0BK@FDDH@catalog?5file?5open?5failure?$AA@ 10082ca8     e4string.obj
 0003:0000acc4       ??_C@_0BJ@JGBN@server?5connection?5failed?$AA@ 10082cc4     e4string.obj
 0003:0000ace0       ??_C@_0BJ@KDMO@field?5type?5not?5supported?$AA@ 10082ce0     e4string.obj
 0003:0000acfc       ??_C@_0BG@PJGH@field?5already?5defined?$AA@ 10082cfc     e4string.obj
 0003:0000ad14       ??_C@_0BF@NACE@invalid?5field?5number?$AA@ 10082d14     e4string.obj
 0003:0000ad2c       ??_C@_0DO@MPPB@expression?5for?5index?5tag?5use?5can@ 10082d2c     e4string.obj
 0003:0000ad6c       ??_C@_0DJ@MHEH@expression?5data?5context?5does?5not@ 10082d6c     e4string.obj
 0003:0000ada8       ??_C@_0DH@GPPH@invalid?5value?5detected?5in?5record@ 10082da8     e4string.obj
 0003:0000ade0       ??_C@_08JJOG@function?$AA@ 10082de0     e4string.obj
 0003:0000adec       ??_C@_0BJ@DGMA@expecting?5logical?5result?$AA@ 10082dec     e4string.obj
 0003:0000ae08       ??_C@_0CA@MDPP@CODE4?9?$DOstored_key_len?5too?5small?$AA@ 10082e08     e4string.obj
 0003:0000ae28       ??_C@_0CA@OOLA@unexpected?5null?5string?5detected?$AA@ 10082e28     e4string.obj
 0003:0000ae48       ??_C@_0BP@ENLK@failure?5in?5logical?5field?5index?$AA@ 10082e48     e4string.obj
 0003:0000ae68       ??_C@_0BD@DNHG@unknown?5field?5type?$AA@ 10082e68     e4string.obj
 0003:0000ae7c       ??_C@_0BD@KIIG@process?5fork?5error?$AA@ 10082e7c     e4string.obj
 0003:0000ae90       ??_C@_0CB@MLL@attempt?5to?5lock?5an?5unopened?5file@ 10082e90     e4string.obj
 0003:0000aeb4       ??_C@_0DC@KADA@attempt?5to?5change?5file?5length?5of@ 10082eb4     e4string.obj
 0003:0000aee8       ??_C@_0CF@GIGJ@attempt?5to?5write?5to?5a?5read?9only?5@ 10082ee8     e4string.obj
 0003:0000af10       ??_C@_0CG@MKNC@error?5creating?5temporary?5working@ 10082f10     e4string.obj
 0003:0000af38       ??_C@_0BO@CGMH@exiting?5from?5within?5lock?5wait?$AA@ 10082f38     e4string.obj
 0003:0000af58       ??_C@_0BP@IDMH@uncreated?5file?5attempted?5flush?$AA@ 10082f58     e4string.obj
 0003:0000af78       ??_C@_0BA@HMII@file?5corruption?$AA@ 10082f78     e4string.obj
 0003:0000af88       ??_C@_0CB@MOLF@attempt?5to?5alter?5a?5readOnly?5file@ 10082f88     e4string.obj
 0003:0000afac       ??_C@_0CB@DMBD@expected?5memo?5field?5non?9existant@ 10082fac     e4string.obj
 0003:0000afd0       ??_C@_0BD@FIHO@invalid?5field?5type?$AA@ 10082fd0     e4string.obj
 0003:0000afe4       ??_C@_0BH@LAPK@block?5ordering?5invalid?$AA@ 10082fe4     e4string.obj
 0003:0000affc       ??_C@_0CK@DONN@block?5branch?1leaf?5block?5type?5inc@ 10082ffc     e4string.obj
 0003:0000b028       ??_C@_0CM@KCND@block?5pointer?5value?5exceeds?5inde@ 10083028     e4string.obj
 0003:0000b054       ??_C@_0CA@COCE@block?5pointer?5duplication?5error?$AA@ 10083054     e4string.obj
 0003:0000b074       ??_C@_0CH@MBCN@duplicate?5key?5insert?5into?5unique@ 10083074     e4string.obj
 0003:0000b09c       ??_C@_0BE@OBIL@corrupt?5index?5block?$AA@ 1008309c     e4string.obj
 0003:0000b0b0       ??_C@_0BN@EGKP@unable?5to?5run?5system?5command?$AA@ 100830b0     e4string.obj
 0003:0000b0d0       ??_C@_0GM@OJCJ@LOG?5setting?5set?5to?5LOG4BACK_ONLY@ 100830d0     e4string.obj
 0003:0000b13c       ??_C@_0CL@BHOJ@field?5missing?5in?5server?5configur@ 1008313c     e4string.obj
 0003:0000b168       ??_C@_0FM@OBHE@unexpected?5error?5attempting?5to?5a@ 10083168     e4string.obj
 0003:0000b1c4       ??_C@_0BL@NGAA@ODBCPORTNO?5field?5not?5found?$AA@ 100831c4     e4string.obj
 0003:0000b1e0       ??_C@_0DJ@MOON@TCPEND?5or?5TCPBEGIN?5field?5contain@ 100831e0     e4string.obj
 0003:0000b21c       ??_C@_0BH@EEEL@TCPEND?5field?5not?5found?$AA@ 1008321c     e4string.obj
 0003:0000b234       ??_C@_0BJ@BOIL@TCPBEGIN?5field?5not?5found?$AA@ 10083234     e4string.obj
 0003:0000b250       ??_C@_0CC@NNNM@unable?5to?5create?5blast?5connectio@ 10083250     e4string.obj
 0003:0000b274       ??_C@_0BM@DBDK@unable?5to?5connect?5to?5client?$AA@ 10083274     e4string.obj
 0003:0000b290       ??_C@_0CF@IEPA@error?5initializing?5client?5connec@ 10083290     e4string.obj
 0003:0000b2b8       ??_C@_0BL@PCDP@error?5accepting?5connection?$AA@ 100832b8     e4string.obj
 0003:0000b2d4       ??_C@_0CA@PICG@failure?5to?5open?5privileges?5file?$AA@ 100832d4     e4string.obj
 0003:0000b2f4       ??_C@_0BO@PMPA@failure?5to?5open?5accounts?5file?$AA@ 100832f4     e4string.obj
 0003:0000b314       ??_C@_0CE@BIHK@Closing?5server?5thread?5handle?5fai@ 10083314     e4string.obj
 0003:0000b338       ??_C@_0CA@KHDE@Waiting?5on?5server?5thread?5failed?$AA@ 10083338     e4string.obj
 0003:0000b358       ??_C@_0BO@EHNJ@Creating?5server?5thread?5failed?$AA@ 10083358     e4string.obj
 0003:0000b378       ??_C@_0CI@CLAA@Exceeded?5maximum?5client?5count?5on@ 10083378     e4string.obj
 0003:0000b3a0       ??_C@_0DG@IPBF@Server?5integrity?5violated?0?5memor@ 100833a0     e4string.obj
 0003:0000b3d8       ??_C@_0BE@EEGN@LOG?5field?5not?5found?$AA@ 100833d8     e4string.obj
 0003:0000b3ec       ??_C@_0BP@JIMA@LOG?5invalid?5value?5?$CI?5?$DM0?5or?5?$DO2?5?$CJ?$AA@ 100833ec     e4string.obj
 0003:0000b40c       ??_C@_0BK@LBCL@Security?5Database?5Invalid?$AA@ 1008340c     e4string.obj
 0003:0000b428       ??_C@_0CE@OMKC@Security?5Database?5Has?5Invalid?5Fi@ 10083428     e4string.obj
 0003:0000b44c       ??_C@_0CC@BKBF@Security?5Database?5Not?5Initialize@ 1008344c     e4string.obj
 0003:0000b470       ??_C@_0DF@NIDA@USECATALOG?5invalid?5value?$CI?5only?51@ 10083470     e4string.obj
 0003:0000b4a8       ??_C@_0BL@EEA@USECATALOG?5field?5not?5found?$AA@ 100834a8     e4string.obj
 0003:0000b4c4       ??_C@_0CF@BPPP@ADDCATALOG?5invalid?5value?$CI?5?$DM0?5or?5@ 100834c4     e4string.obj
 0003:0000b4ec       ??_C@_0BL@MGOC@ADDCATALOG?5field?5not?5found?$AA@ 100834ec     e4string.obj
 0003:0000b508       ??_C@_0BL@EDCE@D4COMPRESS?5field?5not?5found?$AA@ 10083508     e4string.obj
 0003:0000b524       ??_C@_0CE@HBIO@OPENMODE?5invalid?5value?5?$CI?5?$DM0?5or?5?$DO@ 10083524     e4string.obj
 0003:0000b548       ??_C@_0BI@GLOC@D4CHECK?5field?5not?5found?$AA@ 10083548     e4string.obj
 0003:0000b560       ??_C@_0BJ@GMDJ@OPENMODE?5field?5not?5found?$AA@ 10083560     e4string.obj
 0003:0000b57c       ??_C@_0BG@OCAF@D4ZAP?5field?5not?5found?$AA@ 1008357c     e4string.obj
 0003:0000b594       ??_C@_0BJ@GCJH@PROTOCOL?5field?5not?5found?$AA@ 10083594     e4string.obj
 0003:0000b5b0       ??_C@_0BH@HIAC@D4PACK?5field?5not?5found?$AA@ 100835b0     e4string.obj
 0003:0000b5c8       ??_C@_0CA@HLP@blank?5PROTOCOL?5field?5is?5invalid?$AA@ 100835c8     e4string.obj
 0003:0000b5e8       ??_C@_0BK@IKON@D4REINDEX?5field?5not?5found?$AA@ 100835e8     e4string.obj
 0003:0000b604       ??_C@_0BK@HMDE@PROCESSID?5field?5not?5found?$AA@ 10083604     e4string.obj
 0003:0000b620       ??_C@_0BJ@KMMC@I4CREATE?5field?5not?5found?$AA@ 10083620     e4string.obj
 0003:0000b63c       ??_C@_0BJ@OCLA@D4CREATE?5field?5not?5found?$AA@ 1008363c     e4string.obj
 0003:0000b658       ??_C@_0BM@ILCG@Could?5not?5create?5error?5file?$AA@ 10083658     e4string.obj
 0003:0000b674       ??_C@_0FG@DKMJ@Could?5not?5open?5existing?5error?5fi@ 10083674     e4string.obj
 0003:0000b6cc       ??_C@_0CJ@IFIF@DEFPATH?5default?5path?5drive?5not?5a@ 100836cc     e4string.obj
 0003:0000b6f8       ??_C@_0CD@COFH@DEFPATH?5default?5path?5not?5availab@ 100836f8     e4string.obj
 0003:0000b71c       ??_C@_0BI@MNII@DEFPATH?5field?5not?5found?$AA@ 1008371c     e4string.obj
 0003:0000b734       ??_C@_0CO@FNOM@SERVERID?5field?5is?5invalid?5?$CI?5cont@ 10083734     e4string.obj
 0003:0000b764       ??_C@_0P@JOF@server4tranEof?$AA@ 10083764     e4string.obj
 0003:0000b774       ??_C@_0BD@HKML@server4tranEofHalt?$AA@ 10083774     e4string.obj
 0003:0000b788       ??_C@_0BD@BGGE@server4tranRestart?$AA@ 10083788     e4string.obj
 0003:0000b79c       ??_C@_0DE@FCPB@Cannot?5start?5server?5because?5tran@ 1008379c     e4string.obj
 0003:0000b7d0       ??_C@_0BP@HHDM@MEMXTFILE?5invalid?5value?5?$CI?5?$DM1?5?$CJ?$AA@ 100837d0     e4string.obj
 0003:0000b7f0       ??_C@_0BK@POAE@MEMXTFILE?5field?5not?5found?$AA@ 100837f0     e4string.obj
 0003:0000b80c       ??_C@_0CA@NNHG@MEMSTTFILE?5invalid?5value?5?$CI?5?$DM1?5?$CJ?$AA@ 1008380c     e4string.obj
 0003:0000b82c       ??_C@_0BL@LNJI@MEMSTTFILE?5field?5not?5found?$AA@ 1008382c     e4string.obj
 0003:0000b848       ??_C@_0CG@PAOK@table?5authorization?5table?5open?5f@ 10083848     e4string.obj
 0003:0000b870       ??_C@_0CF@PEOC@user?5authorization?5table?5open?5fa@ 10083870     e4string.obj
 0003:0000b898       ??_C@_0BL@EFLC@catalog?5file?5check?5failure?$AA@ 10083898     e4string.obj
 0003:0000b8b4       ??_C@_0BN@GEOI@failure?5to?5open?5catalog?5file?$AA@ 100838b4     e4string.obj
 0003:0000b8d4       ??_C@_0CF@IDOG@catalog?5file?5in?5use?5but?5non?9exis@ 100838d4     e4string.obj
 0003:0000b8fc       ??_C@_0BA@DNDN@server4closeAll?$AA@ 100838fc     e4string.obj
 0003:0000b90c       ??_C@_0EF@NOGD@attempt?5to?5perform?5a?5new?5action?5@ 1008390c     e4string.obj
 0003:0000b954       ??_C@_0BG@PEDH@server4processMessage?$AA@ 10083954     e4string.obj
 0003:0000b96c       ??_C@_0M@PFMK@server4open?$AA@ 1008396c     e4string.obj
 0003:0000b978       ??_C@_0O@BGDO@server4create?$AA@ 10083978     e4string.obj
 0003:0000b988       ??_C@_0N@FDN@server4close?$AA@ 10083988     e4string.obj
 0003:0000b998       ??_C@_0O@MCPB@server4verify?$AA@ 10083998     e4string.obj
 0003:0000b9a8       ??_C@_0BG@BIBB@server4executeLogData?$AA@ 100839a8     e4string.obj
 0003:0000b9c0       ??_C@_0P@CNNB@server4connect?$AA@ 100839c0     e4string.obj
 0003:0000b9d0       ??_C@_0CB@BNFN@dbAuthorize?5database?5field?5error@ 100839d0     e4string.obj
 0003:0000b9f4       ??_C@_0BJ@NHBL@server4clientDbAuthorize?$AA@ 100839f4     e4string.obj
 0003:0000ba10       ??_C@_0BA@HFIK@server4initUndo?$AA@ 10083a10     e4string.obj
 0003:0000ba20       ??_C@_0CF@IFEM@Failure?5to?5initialize?5communicat@ 10083a20     e4string.obj
 0003:0000ba48       ??_C@_0CF@GKKD@Failure?5to?5initialize?5catalog?5cl@ 10083a48     e4string.obj
 0003:0000ba70       ??_C@_0CD@FLFG@Failure?5to?5initialize?5transactio@ 10083a70     e4string.obj
 0003:0000ba94       ??_C@_0CA@FNOL@IDHANDLING?5invalid?5value?5?$CI?5?$DM1?5?$CJ?$AA@ 10083a94     e4string.obj
 0003:0000bab4       ??_C@_0BL@KCDO@IDHANDLING?5field?5not?5found?$AA@ 10083ab4     e4string.obj
 0003:0000bad0       ??_C@_0CH@FCPD@OPTIMIZEWR?5invalid?5value?5?$CI?5?$DM?91?5o@ 10083ad0     e4string.obj
 0003:0000baf8       ??_C@_0BL@FCLH@OPTIMIZEWR?5field?5not?5found?$AA@ 10083af8     e4string.obj
 0003:0000bb14       ??_C@_0CF@BAPP@OPTIMIZE?5invalid?5value?5?$CI?5?$DM?91?5or?5@ 10083b14     e4string.obj
 0003:0000bb3c       ??_C@_0BJ@GGMB@OPTIMIZE?5field?5not?5found?$AA@ 10083b3c     e4string.obj
 0003:0000bb58       ??_C@_0BO@PBOH@MEMSTTAG?5invalid?5value?5?$CI?5?$DM1?5?$CJ?$AA@ 10083b58     e4string.obj
 0003:0000bb78       ??_C@_0BJ@EBEP@MEMSTTAG?5field?5not?5found?$AA@ 10083b78     e4string.obj
 0003:0000bb94       ??_C@_0CA@KKEP@MEMSTIFILE?5invalid?5value?5?$CI?5?$DM1?5?$CJ?$AA@ 10083b94     e4string.obj
 0003:0000bbb4       ??_C@_0BL@OKPE@MEMSTIFILE?5field?5not?5found?$AA@ 10083bb4     e4string.obj
 0003:0000bbd0       ??_C@_0CA@CAPD@MEMSTINDEX?5invalid?5value?5?$CI?5?$DM1?5?$CJ?$AA@ 10083bd0     e4string.obj
 0003:0000bbf0       ??_C@_0BL@HOAI@MEMSTINDEX?5field?5not?5found?$AA@ 10083bf0     e4string.obj
 0003:0000bc0c       ??_C@_0CA@IJP@MEMSTDFILE?5invalid?5value?5?$CI?5?$DM1?5?$CJ?$AA@ 10083c0c     e4string.obj
 0003:0000bc2c       ??_C@_0BL@LJKH@MEMSTDFILE?5field?5not?5found?$AA@ 10083c2c     e4string.obj
 0003:0000bc48       ??_C@_0BP@GBG@MEMSTDATA?5invalid?5value?5?$CI?5?$DM1?5?$CJ?$AA@ 10083c48     e4string.obj
 0003:0000bc68       ??_C@_0BK@BCAB@MEMSTDATA?5field?5not?5found?$AA@ 10083c68     e4string.obj
 0003:0000bc84       ??_C@_0DI@JJAM@MEMSTMAX?5invalid?5value?5?$CI?5MEMSTMA@ 10083c84     e4string.obj
 0003:0000bcbc       ??_C@_0BJ@IBFN@MEMSTMAX?5field?5not?5found?$AA@ 10083cbc     e4string.obj
 0003:0000bcd8       ??_C@_0BP@PMNJ@MEMSTLOCK?5invalid?5value?5?$CI?5?$DM1?5?$CJ?$AA@ 10083cd8     e4string.obj
 0003:0000bcf8       ??_C@_0BK@IGOB@MEMSTLOCK?5field?5not?5found?$AA@ 10083cf8     e4string.obj
 0003:0000bd14       ??_C@_0CA@DFII@MEMSTCLIEN?5invalid?5value?5?$CI?5?$DM1?5?$CJ?$AA@ 10083d14     e4string.obj
 0003:0000bd34       ??_C@_0BL@NHFJ@MEMSTCLIEN?5field?5not?5found?$AA@ 10083d34     e4string.obj
 0003:0000bd50       ??_C@_0CA@BOJA@MEMSTBLOCK?5invalid?5value?5?$CI?5?$DM1?5?$CJ?$AA@ 10083d50     e4string.obj
 0003:0000bd70       ??_C@_0BL@BLPI@MEMSTBLOCK?5field?5not?5found?$AA@ 10083d70     e4string.obj
 0003:0000bd8c       ??_C@_0DF@OAEF@MEMSZSP?5invalid?5value?5?$CI?5MEMSZSP?5@ 10083d8c     e4string.obj
 0003:0000bdc4       ??_C@_0BI@FPEP@MEMSZSP?5field?5not?5found?$AA@ 10083dc4     e4string.obj
 0003:0000bddc       ??_C@_0DJ@HMEM@MEMSZSB?5invalid?5value?5?$CI?5?$DM2048?5or@ 10083ddc     e4string.obj
 0003:0000be18       ??_C@_0BI@PFBA@MEMSZSB?5field?5not?5found?$AA@ 10083e18     e4string.obj
 0003:0000be30       ??_C@_0BI@PAMA@MEMSZMEMO?5invalid?5value?$AA@ 10083e30     e4string.obj
 0003:0000be48       ??_C@_0BK@CJBC@MEMSZMEMO?5field?5not?5found?$AA@ 10083e48     e4string.obj
 0003:0000be64       ??_C@_0DK@JFPD@MEMSZBUF?5invalid?5value?5?$CI?5?$DM1024?5o@ 10083e64     e4string.obj
 0003:0000bea0       ??_C@_0BJ@MPCL@MEMSZBUF?5field?5not?5found?$AA@ 10083ea0     e4string.obj
 0003:0000bebc       ??_C@_0DK@NHAC@MEMSZBLOCK?5invalid?5value?5?$CI?5?$DM512?5@ 10083ebc     e4string.obj
 0003:0000bef8       ??_C@_0BL@BABL@MEMSZBLOCK?5field?5not?5found?$AA@ 10083ef8     e4string.obj
 0003:0000bf14       ??_C@_0BO@IOCO@MEMXTAG?5invalid?5value?5?$CI?5?$DM?51?5?$CJ?$AA@ 10083f14     e4string.obj
 0003:0000bf34       ??_C@_0BI@IKDN@MEMXTAG?5field?5not?5found?$AA@ 10083f34     e4string.obj
 0003:0000bf4c       ??_C@_0BP@KDII@MEMXLOCK?5invalid?5value?5?$CI?5?$DM?51?5?$CJ?$AA@ 10083f4c     e4string.obj
 0003:0000bf6c       ??_C@_0BJ@BKCK@MEMXLOCK?5field?5not?5found?$AA@ 10083f6c     e4string.obj
 0003:0000bf88       ??_C@_0CA@OJDO@MEMXIFILE?5invalid?5value?5?$CI?5?$DM?51?5?$CJ?$AA@ 10083f88     e4string.obj
 0003:0000bfa8       ??_C@_0BK@KJGI@MEMXIFILE?5field?5not?5found?$AA@ 10083fa8     e4string.obj
 0003:0000bfc4       ??_C@_0CA@JJLE@MEMXINDEX?5invalid?5value?5?$CI?5?$DM?51?5?$CJ?$AA@ 10083fc4     e4string.obj
 0003:0000bfe4       ??_C@_0BK@DNJE@MEMXINDEX?5field?5not?5found?$AA@ 10083fe4     e4string.obj
 0003:0000c000       ??_C@_0CA@PEJM@MEMXDFILE?5invalid?5value?5?$CI?5?$DM?51?5?$CJ?$AA@ 10084000     e4string.obj
 0003:0000c020       ??_C@_0BJ@FFPK@KEEPOPEN?5field?5not?5found?$AA@ 10084020     e4string.obj
 0003:0000c03c       ??_C@_0BP@HBHC@MEMXDATA?5invalid?5value?5?$CI?5?$DM?51?5?$CJ?$AA@ 1008403c     e4string.obj
 0003:0000c05c       ??_C@_0BJ@IOMK@MEMXDATA?5field?5not?5found?$AA@ 1008405c     e4string.obj
 0003:0000c078       ??_C@_0CB@BAED@MEMXCLIENT?5invalid?5value?5?$CI?5?$DM?51?5?$CJ@ 10084078     e4string.obj
 0003:0000c09c       ??_C@_0BL@OMNB@MEMXCLIENT?5field?5not?5found?$AA@ 1008409c     e4string.obj
 0003:0000c0b8       ??_C@_0CA@JBIK@MEMXBLOCK?5invalid?5value?5?$CI?5?$DM?51?5?$CJ?$AA@ 100840b8     e4string.obj
 0003:0000c0d8       ??_C@_0BK@FIGE@MEMXBLOCK?5field?5not?5found?$AA@ 100840d8     e4string.obj
 0003:0000c0f4       ??_C@_0BI@PDN@ERRNAME?5field?5not?5found?$AA@ 100840f4     e4string.obj
 0003:0000c10c       ??_C@_0BL@PON@TBAUTHNAME?5field?5not?5found?$AA@ 1008410c     e4string.obj
 0003:0000c128       ??_C@_0BJ@HPOL@ACCTNAME?5field?5not?5found?$AA@ 10084128     e4string.obj
 0003:0000c144       ??_C@_0BI@OKBH@LOGNAME?5field?5not?5found?$AA@ 10084144     e4string.obj
 0003:0000c15c       ??_C@_0BK@IDAC@TRANSNAME?5field?5not?5found?$AA@ 1008415c     e4string.obj
 0003:0000c178       ??_C@_0BI@OANO@CATNAME?5field?5not?5found?$AA@ 10084178     e4string.obj
 0003:0000c190       ??_C@_0CE@CJN@SERVERID?5field?5is?5invalid?5?$CI?5blan@ 10084190     e4string.obj
 0003:0000c1b4       ??_C@_0EB@PLFM@Invalid?5configuration?5file?5?$CIcoul@ 100841b4     e4string.obj
 0003:0000c1f8       ??_C@_0CJ@FIFP@could?5not?5open?5server?5configurat@ 100841f8     e4string.obj
 0003:0000c224       ??_C@_0CF@CKIH@failure?5to?5initialize?5catalog?5cl@ 10084224     e4string.obj
 0003:0000c24c       ??_C@_0CD@OEBF@failure?5to?5initialize?5transactio@ 1008424c     e4string.obj
 0003:0000c270       ??_C@_0M@DAJG@server4init?$AA@ 10084270     e4string.obj
 0003:0000c27c       ??_C@_0CB@FNHH@invalid?5table?5authorization?5file@ 1008427c     e4string.obj
 0003:0000c2a0       ??_C@_0BE@LEDK@server4securityInit?$AA@ 100842a0     e4string.obj
 0003:0000c2b4       ??_C@_0P@LPFA@server?5failure?$AA@ 100842b4     e4string.obj
 0003:0000c2c4       ??_C@_0BN@HKAI@failure?5to?5initialize?5server?$AA@ 100842c4     e4string.obj
 0003:0000c2e4       ??_C@_0N@POIB@file4readLow?$AA@ 100842e4     f4file.obj
 0003:0000c2f4       ??_C@_0CK@MDHP@failed?5to?5uncompress?5compressed?5@ 100842f4     f4file.obj
 0003:0000c320       ??_C@_0DG@CEGE@failed?5to?5uncompress?3?5corrupt?5co@ 10084320     f4file.obj
 0003:0000c358       ??_C@_0DG@HKHE@failed?5to?5uncompress?3?5insufficie@ 10084358     f4file.obj
 0003:0000c390       ??_C@_0CK@PHFK@failed?5to?5uncompress?3?5insufficie@ 10084390     f4file.obj
 0003:0000c3bc       ??_C@_0BA@IENK@file4readAllLow?$AA@ 100843bc     f4file.obj
 0003:0000c3cc       ??_C@_0BA@PJL@file4seqReadAll?$AA@ 100843cc     F4FILESE.obj
 0003:0000c3dc       ??_C@_01PJCK@?4?$AA@       100843dc     f4find.obj
 0003:0000c3e0       ??_C@_0DM@HHOD@f4memoReadPart?$CI?$CJ?5is?5not?5supporte@ 100843e0     f4memo.obj
 0003:0000c41c       ??_C@_04OMOF@?4TMP?$AA@    1008441c     F4TEMP.obj
 0003:0000c424       ??_C@_01KGOM@T?$AA@        10084424     F4TEMP.obj
 0003:0000c428       ??_C@_03LDNL@TMP?$AA@      10084428     F4TEMP.obj
 0003:0000c42c       ??_C@_0BB@NKAE@position?5failure?$AA@ 1008442c     f4write.obj
 0003:0000c440       ??_C@_0CA@DCDI@failed?5to?5write?5expected?5length?$AA@ 10084440     f4write.obj
 0003:0000c460       ??_C@_09KLBO@read?5fail?$AA@ 10084460     f4write.obj
 0003:0000c470       ?s5hasDescending@@3HA      10084470     i4conv.obj
 0003:0000d4f8       ?collationArray@@3PAUCOLLATE4@@A 100854f8     i4conv.obj
 0003:000100b4       ??_C@_02GBLE@CB?$AA@       100880b4     i4init.obj
 0003:000100b8       ??_C@_07MFB@GENERAL?$AA@   100880b8     i4init.obj
 0003:000100c0       ??_C@_08IKAM@GENERAL?$AA?$AA@ 100880c0     I4TAG.obj
 0003:000100cc       ??_C@_0CE@PNEF@attempt?5to?5use?5unsupported?5CodeP@ 100880cc     I4TAG.obj
 0003:000100f0       ??_C@_08CDEG@MM?1DD?1YY?$AA@ 100880f0     j4java.obj
 0003:000100fc       ??_C@_0FH@PHL@IS0410?3Server?5is?5disconnecting?5c@ 100880fc     j4java.obj
 0003:00010154       ??_C@_0GJ@HMDH@IS0400?3Server?5is?5disconnecting?5c@ 10088154     j4java.obj
 0003:000101c0       ??_C@_0DI@EJEH@partial?5reading?5of?5memos?5not?5sup@ 100881c0     m4file.obj
 0003:000101f8       ??_C@_0DH@HMCP@Memory?5Status?3?5?$CD?5allocations?3?5?$CFl@ 100881f8     m4memory.obj
 0003:00010230       ??_C@_02OFKN@?4?2?$AA@     10088230     u4name.obj
 0003:00010234       ??_C@_03NLLK@?4?4?2?$AA@   10088234     u4name.obj
 0003:00010238       ??_C@_03HKFD@?4?4?1?$AA@   10088238     u4name.obj
 0003:0001023c       ??_C@_08MOCL@LOSSINFO?$AA@ 1008823c     u4util.obj
 0003:00010248       ??_C@_09HDDP@TRANSREQD?$AA@ 10088248     u4util.obj
 0003:00010254       ??_C@_0L@FAAK@NOTAILCHAR?$AA@ 10088254     u4util.obj
 0003:00010260       ??_C@_08NCP@COMPCHAR?$AA@  10088260     u4util.obj
 0003:0001026c       ??_C@_07IKGF@SUBREQD?$AA@  1008826c     u4util.obj
 0003:00010274       ??_C@_08MLAO@COMPREQD?$AA@ 10088274     u4util.obj
 0003:00010280       ??_C@_09OFLN@EXPANREQD?$AA@ 10088280     u4util.obj
 0003:0001028c       ??_C@_07CKKA@COMPEND?$AA@  1008828c     u4util.obj
 0003:00010294       ??_C@_09PCEN@COMPSTART?$AA@ 10088294     u4util.obj
 0003:000102a0       ??_C@_07GAHM@COLLEND?$AA@  100882a0     u4util.obj
 0003:000102a8       ??_C@_09HNFL@COLLSTART?$AA@ 100882a8     u4util.obj
 0003:000102b4       ??_C@_09BOFG@ISUNICODE?$AA@ 100882b4     u4util.obj
 0003:000102c0       ??_C@_08GNKJ@coll4inf?$AA@ 100882c0     u4util.obj
 0003:000102cc       ??_C@_0L@JEKP@SBSORTCODE?$AA@ 100882cc     u4util.obj
 0003:000102d8       ??_C@_0L@FHKG@TRANS_CODE?$AA@ 100882d8     u4util.obj
 0003:000102e4       ??_C@_08KALB@collate4?$AA@ 100882e4     u4util.obj
 0003:000102f0       ??_C@_0L@MJMB@SUBSORTMOD?$AA@ 100882f0     u4util.obj
 0003:000102fc       ??_C@_05DHF@CHAR2?$AA@     100882fc     u4util.obj
 0003:00010304       ??_C@_05PMMM@CHAR1?$AA@    10088304     u4util.obj
 0003:0001030c       ??_C@_09PCMC@IS_EXPAND?$AA@ 1008830c     u4util.obj
 0003:00010318       ??_C@_08OCAG@compres4?$AA@ 10088318     u4util.obj
 0003:00010488       ?CustomerStamp@@3USTAMP5st@@A 10088488     source5.obj
 0003:0001061c       ??_C@_0JL@NJEG@?$CIc?$CJ?5Sequiter?5Software?5Inc?4?0?51988@ 1008861c     source5.obj
 0003:000106b8       __fltused                  100886b8     LIBCMT:fpinit.obj
 0003:000106bc       __ldused                   100886bc     LIBCMT:fpinit.obj
 0003:000106c0       __FPinit                   100886c0     LIBCMT:fpinit.obj
 0003:000106c4       __FPmtinit                 100886c4     LIBCMT:fpinit.obj
 0003:000106c8       __FPmtterm                 100886c8     LIBCMT:fpinit.obj
 0003:000106d0       __half                     100886d0     LIBCMT:pow.obj
 0003:000106e0       __aexit_rtn                100886e0     LIBCMT:dllcrt0.obj
 0003:000106e4       __cfltcvt_tab              100886e4     LIBCMT:cmiscdat.obj
 0003:00010700       __pctype                   10088700     LIBCMT:ctype.obj
 0003:00010704       __pwctype                  10088704     LIBCMT:ctype.obj
 0003:00010708       __ctype                    10088708     LIBCMT:ctype.obj
 0003:0001090c       ___mb_cur_max              1008890c     LIBCMT:nlsdata1.obj
 0003:00010910       ___decimal_point           10088910     LIBCMT:nlsdata1.obj
 0003:00010914       ___decimal_point_length    10088914     LIBCMT:nlsdata1.obj
 0003:00010a80       ___tlsindex                10088a80     LIBCMT:tidtable.obj
 0003:00010a88       __XcptActTab               10088a88     LIBCMT:winxfltr.obj
 0003:00010b00       __First_FPE_Indx           10088b00     LIBCMT:winxfltr.obj
 0003:00010b04       __Num_FPE                  10088b04     LIBCMT:winxfltr.obj
 0003:00010b08       __XcptActTabSize           10088b08     LIBCMT:winxfltr.obj
 0003:00010b0c       __XcptActTabCount          10088b0c     LIBCMT:winxfltr.obj
 0003:00010b10       __NLG_Destination          10088b10     LIBCMT:exsup.obj
 0003:00010b20       ___nullstring              10088b20     LIBCMT:output.obj
 0003:00010b24       ___wnullstring             10088b24     LIBCMT:output.obj
 0003:00010b28       __amblksiz                 10088b28     LIBCMT:heapinit.obj
 0003:00010b2c       __locktable                10088b2c     LIBCMT:mlock.obj
 0003:00010bec       ___sbh_threshold           10088bec     LIBCMT:sbheap.obj
 0003:00010bf0       __infinity                 10088bf0     LIBCMT:87tran.obj
 0003:00010bfa       __minfinity                10088bfa     LIBCMT:87tran.obj
 0003:00010c04       __logemax                  10088c04     LIBCMT:87tran.obj
 0003:00010c2a       __OP_EXPjmptab             10088c2a     LIBCMT:87tran.obj
 0003:00010c50       __indefinite               10088c50     LIBCMT:87disp.obj
 0003:00010c5a       __piby2                    10088c5a     LIBCMT:87disp.obj
 0003:00010d90       ___badioinfo               10088d90     LIBCMT:ioinit.obj
 0003:00010e80       __iob                      10088e80     LIBCMT:_file.obj
 0003:00011100       __timezone                 10089100     LIBCMT:timeset.obj
 0003:00011104       __daylight                 10089104     LIBCMT:timeset.obj
 0003:00011108       __dstbias                  10089108     LIBCMT:timeset.obj
 0003:0001118c       __tzname                   1008918c     LIBCMT:timeset.obj
 0003:000111b4       __lpdays                   100891b4     LIBCMT:days.obj
 0003:000111e8       __days                     100891e8     LIBCMT:days.obj
 0003:00011380       __d_inf                    10089380     LIBCMT:util.obj
 0003:00011388       __d_ind                    10089388     LIBCMT:util.obj
 0003:00011390       __d_max                    10089390     LIBCMT:util.obj
 0003:00011398       __d_min                    10089398     LIBCMT:util.obj
 0003:000113a0       __d_mzero                  100893a0     LIBCMT:util.obj
 0003:00011580       __matherr_flag             10089580     LIBCMT:matherr.obj
 0003:0001159c       ___lc_time_curr            1008959c     LIBCMT:strftime.obj
 0003:000115a0       ___lc_time_c               100895a0     LIBCMT:strftime.obj
 0003:00011650       ___lconv_static_decimal    10089650     LIBCMT:lconv.obj
 0003:00011658       ___lconv_c                 10089658     LIBCMT:lconv.obj
 0003:00011688       ___lconv                   10089688     LIBCMT:lconv.obj
 0003:00011690       __pow10pos                 10089690     LIBCMT:constpow.obj
 0003:000117f0       __pow10neg                 100897f0     LIBCMT:constpow.obj
 0003:00011950       ?g_compressed@@3PAEA       10089950     C4CODE.obj
 0003:00015950       ?f4memoNullChar@@3GA       1008d950     C4CODE.obj
 0003:00015954       ?expr4buf@@3PADA           1008d954     C4CODE.obj
 0003:00015958       _numCode4                  1008d958     C4CODE.obj
 0003:0001595c       ?cb5inst@@3PAUHINSTANCE__@@A 1008d95c     C4CODE.obj
 0003:00015964       ??_C@_01A@?$AA?$AA@        1008d964     c4trans.obj
 0003:00015a78       ?startTime@@3JA            1008da78     d4main.obj
 0003:00015a7c       ?hExitButton@@3PAUHWND__@@A 1008da7c     d4main.obj
 0003:00015a80       ?hAdminButton@@3PAUHWND__@@A 1008da80     d4main.obj
 0003:00015a84       ?hTranNo@@3PAUHWND__@@A    1008da84     d4main.obj
 0003:00015a88       ?hTranYes@@3PAUHWND__@@A   1008da88     d4main.obj
 0003:00015a8c       ?hAutoRecovery@@3PAUHWND__@@A 1008da8c     d4main.obj
 0003:00015a90       ?hLocks@@3PAUHWND__@@A     1008da90     d4main.obj
 0003:00015a94       ?hTables@@3PAUHWND__@@A    1008da94     d4main.obj
 0003:00015a98       ?hConnections@@3PAUHWND__@@A 1008da98     d4main.obj
 0003:00015a9c       ?hUsers@@3PAUHWND__@@A     1008da9c     d4main.obj
 0003:00015aa0       ?hMaxUsers@@3PAUHWND__@@A  1008daa0     d4main.obj
 0003:00015aa4       ?hSerialNo@@3PAUHWND__@@A  1008daa4     d4main.obj
 0003:00015aa8       ?hRegistered@@3PAUHWND__@@A 1008daa8     d4main.obj
 0003:00015aac       ?hUpTime@@3PAUHWND__@@A    1008daac     d4main.obj
 0003:00015ab0       ?hWndConfig@@3PAUHWND__@@A 1008dab0     d4main.obj
 0003:00015ab4       ?hWndLicence@@3PAUHWND__@@A 1008dab4     d4main.obj
 0003:00015ab8       ?hWndAbout@@3PAUHWND__@@A  1008dab8     d4main.obj
 0003:00015abc       ?hWndGlobal@@3PAUHWND__@@A 1008dabc     d4main.obj
 0003:00015ac0       ?initConfig@@3USEMAPHORE4St@@A 1008dac0     d4main.obj
 0003:00015acc       ?configBuff@@3PADA         1008dacc     d4main.obj
 0003:00015bcc       ?Serial@@3PADA             1008dbcc     d4main.obj
 0003:00015be4       ?Cname@@3PADA              1008dbe4     d4main.obj
 0003:00015c18       ?config@@3PAUDATA4St@@A    1008dc18     d4main.obj
 0003:00015c1c       ?serverPtr@@3PAVSERVER4@@A 1008dc1c     d4main.obj
 0003:00015c20       ?isService@@3EA            1008dc20     d4main.obj
 0003:00015c24       ?c4@@3PAUCODE4St@@A        1008dc24     d4main.obj
 0003:00015c28       ?hInst@@3PAUHINSTANCE__@@A 1008dc28     d4main.obj
 0003:00015c2c       ?timer@@3IA                1008dc2c     d4main.obj
 0003:00015c30       ?g_tranEnabled@@3EA        1008dc30     d4main.obj
 0003:00015c34       ??_C@_00A@?$AA@            1008dc34     d4main.obj
 0003:00015c38       ?config4name@@3PADA        1008dc38     d4server.obj
 0003:00015d28       ?g_server@@3PAVSERVER4@@A  1008dd28     d4server.obj
 0003:00015d2c       ?config4inited@@3HA        1008dd2c     d4server.obj
 0003:00015d34       ?g_slowTimeDelay@@3JA      1008dd34     d4server.obj
 0003:00015d3c       ?expr4ptr@@3PAUe4exprSt@@A 1008dd3c     E4EXPR.obj
 0003:00015d40       ?expr4infoPtr@@3PAUE4INFOSt@@A 1008dd40     E4EXPR.obj
 0003:00015d44       ?expr4constants@@3PADA     1008dd44     E4EXPR.obj
 0003:00015d48       ?expr4@@3PAPADA            1008dd48     E4EXPR.obj
 0003:00015d50       ?numFiles5@@3IA            1008dd50     f4close.obj
 0003:00015d68       ?s5fox@@3HA                1008dd68     i4conv.obj
 0003:00015d6c       ?s5mdx@@3HA                1008dd6c     i4conv.obj
 0003:00015d70       ?s5clipper@@3HA            1008dd70     i4conv.obj
 0003:00015df8       ?critical4compression@@3U_RTL_CRITICAL_SECTION@@A 1008ddf8     m4memory.obj
 0003:00015e10       ?critical4expression@@3U_RTL_CRITICAL_SECTION@@A 1008de10     m4memory.obj
 0003:00015e28       ?critical4memory@@3U_RTL_CRITICAL_SECTION@@A 1008de28     m4memory.obj
 0003:00015e40       ?memoryInitialized@@3HA    1008de40     m4memory.obj
 0003:00015e78       ?resetInProgress@@3HA      1008de78     m4memory.obj
 0003:00015e7c       ?mem4allocated@@3JA        1008de7c     m4memory.obj
 0003:00015e80       ?g_mem4numAllocated@@3JA   1008de80     m4memory.obj
 0003:00015e84       ___fastflag                1008de84     LIBCMT:fpinit.obj
 0003:00015e88       __adjust_fdiv              1008de88     LIBCMT:fpinit.obj
 0003:00015eb4       __aenvptr                  1008deb4     LIBCMT:dllcrt0.obj
 0003:00015eb8       __wenvptr                  1008deb8     LIBCMT:dllcrt0.obj
 0003:00015ebc       ___error_mode              1008debc     LIBCMT:dllcrt0.obj
 0003:00015ec0       ___app_type                1008dec0     LIBCMT:dllcrt0.obj
 0003:00015ec4       __umaskval                 1008dec4     LIBCMT:crt0dat.obj
 0003:00015ec8       __osver                    1008dec8     LIBCMT:crt0dat.obj
 0003:00015ecc       __winver                   1008decc     LIBCMT:crt0dat.obj
 0003:00015ed0       __winmajor                 1008ded0     LIBCMT:crt0dat.obj
 0003:00015ed4       __winminor                 1008ded4     LIBCMT:crt0dat.obj
 0003:00015ed8       ___argc                    1008ded8     LIBCMT:crt0dat.obj
 0003:00015edc       ___argv                    1008dedc     LIBCMT:crt0dat.obj
 0003:00015ee0       ___wargv                   1008dee0     LIBCMT:crt0dat.obj
 0003:00015ee4       __environ                  1008dee4     LIBCMT:crt0dat.obj
 0003:00015ee8       ___initenv                 1008dee8     LIBCMT:crt0dat.obj
 0003:00015eec       __wenviron                 1008deec     LIBCMT:crt0dat.obj
 0003:00015ef0       ___winitenv                1008def0     LIBCMT:crt0dat.obj
 0003:00015ef4       __pgmptr                   1008def4     LIBCMT:crt0dat.obj
 0003:00015ef8       __wpgmptr                  1008def8     LIBCMT:crt0dat.obj
 0003:00015efc       __exitflag                 1008defc     LIBCMT:crt0dat.obj
 0003:00015f00       __C_Termination_Done       1008df00     LIBCMT:crt0dat.obj
 0003:00015f04       __C_Exit_Done              1008df04     LIBCMT:crt0dat.obj
 0003:00015f08       __newmode                  1008df08     LIBCMT:_newmode.obj
 0003:00015f0c       ?_pnhHeap@@3P6AHI@ZA       1008df0c     LIBCMT:handler.obj
 0003:00015f7c       ___lc_handle               1008df7c     LIBCMT:nlsdata2.obj
 0003:00015f94       ___lc_codepage             1008df94     LIBCMT:nlsdata2.obj
 0003:00015f98       ___lc_collate_cp           1008df98     LIBCMT:nlsdata2.obj
 0003:000160a8       __adbgmsg                  1008e0a8     LIBCMT:crt0msg.obj
 0003:000160b0       __cflush                   1008e0b0     LIBCMT:_file.obj
 0003:00016174       ___lc_time_intl            1008e174     LIBCMT:inittime.obj
 0003:00016190       ___lc_id                   1008e190     LIBCMT:nlsdata3.obj
 0003:0001620c       ___lconv_static_null       1008e20c     LIBCMT:lconv.obj
 0003:0001621c       ___mbcodepage              1008e21c     <common>
 0003:00016220       ___mbulinfo                1008e220     <common>
 0003:0001622c       ___ismbcodepage            1008e22c     <common>
 0003:00016240       __mbcasemap                1008e240     <common>
 0003:00016340       __mbctype                  1008e340     <common>
 0003:00016444       ___mblcid                  1008e444     <common>
 0003:00016448       ___piob                    1008e448     <common>
 0003:00016460       __bufin                    1008e460     <common>
 0003:00017460       __nstream                  1008f460     <common>
 0003:00017480       ___pioinfo                 1008f480     <common>
 0003:00017580       __nhandle                  1008f580     <common>
 0003:00017584       ___setlc_active            1008f584     <common>
 0003:00017588       ___unguarded_readlc_active 1008f588     <common>
 0003:0001758c       ___sbh_sizeHeaderList      1008f58c     <common>
 0003:00017590       ___sbh_indGroupDefer       1008f590     <common>
 0003:00017594       ___sbh_pHeaderScan         1008f594     <common>
 0003:00017598       ___sbh_pHeaderDefer        1008f598     <common>
 0003:0001759c       ___sbh_cntHeaderList       1008f59c     <common>
 0003:000175a0       ___sbh_pHeaderList         1008f5a0     <common>
 0003:000175a4       __crtheap                  1008f5a4     <common>
 0003:000175a8       ___env_initialized         1008f5a8     <common>
 0003:000175ac       ___mbctype_initialized     1008f5ac     <common>
 0003:000175b0       ___onexitend               1008f5b0     <common>
 0003:000175b4       ___onexitbegin             1008f5b4     <common>
 0003:000175b8       __acmdln                   1008f5b8     <common>
 0003:000175bc       __pRawDllMain              1008f5bc     <common>
 0004:00000000       __IMPORT_DESCRIPTOR_USER32 10090000     user32:USER32.dll
 0004:00000014       __IMPORT_DESCRIPTOR_GDI32  10090014     gdi32:GDI32.dll
 0004:00000028       __IMPORT_DESCRIPTOR_WSOCK32 10090028     wsock32:WSOCK32.dll
 0004:0000003c       __IMPORT_DESCRIPTOR_ADVAPI32 1009003c     advapi32:ADVAPI32.dll
 0004:00000050       __IMPORT_DESCRIPTOR_comdlg32 10090050     comdlg32:comdlg32.dll
 0004:00000064       __IMPORT_DESCRIPTOR_SHELL32 10090064     shell32:SHELL32.dll
 0004:00000078       __IMPORT_DESCRIPTOR_zlib   10090078     zlib:zlib.dll
 0004:0000008c       __IMPORT_DESCRIPTOR_KERNEL32 1009008c     kernel32:KERNEL32.dll
 0004:000000a0       __NULL_IMPORT_DESCRIPTOR   100900a0     user32:USER32.dll
 0004:00000384       __imp__RegCreateKeyExA@36  10090384     advapi32:ADVAPI32.dll
 0004:00000388       __imp__RegSetValueExA@24   10090388     advapi32:ADVAPI32.dll
 0004:0000038c       __imp__RegOpenKeyExA@20    1009038c     advapi32:ADVAPI32.dll
 0004:00000390       __imp__RegQueryValueExA@24 10090390     advapi32:ADVAPI32.dll
 0004:00000394       __imp__RegCloseKey@4       10090394     advapi32:ADVAPI32.dll
 0004:00000398       \177ADVAPI32_NULL_THUNK_DATA 10090398     advapi32:ADVAPI32.dll
 0004:0000039c       __imp__GetStockObject@4    1009039c     gdi32:GDI32.dll
 0004:000003a0       \177GDI32_NULL_THUNK_DATA  100903a0     gdi32:GDI32.dll
 0004:000003a4       __imp__GetOEMCP@0          100903a4     kernel32:KERNEL32.dll
 0004:000003a8       __imp__GetACP@0            100903a8     kernel32:KERNEL32.dll
 0004:000003ac       __imp__CompareStringW@24   100903ac     kernel32:KERNEL32.dll
 0004:000003b0       __imp__CompareStringA@24   100903b0     kernel32:KERNEL32.dll
 0004:000003b4       __imp__GetCPInfo@8         100903b4     kernel32:KERNEL32.dll
 0004:000003b8       __imp__GetStringTypeW@16   100903b8     kernel32:KERNEL32.dll
 0004:000003bc       __imp__GetStringTypeA@20   100903bc     kernel32:KERNEL32.dll
 0004:000003c0       __imp__GetEnvironmentStringsW@0 100903c0     kernel32:KERNEL32.dll
 0004:000003c4       __imp__GetEnvironmentStrings@0 100903c4     kernel32:KERNEL32.dll
 0004:000003c8       __imp__FreeEnvironmentStringsW@4 100903c8     kernel32:KERNEL32.dll
 0004:000003cc       __imp__FreeEnvironmentStringsA@4 100903cc     kernel32:KERNEL32.dll
 0004:000003d0       __imp__GetStartupInfoA@4   100903d0     kernel32:KERNEL32.dll
 0004:000003d4       __imp__GetFileType@4       100903d4     kernel32:KERNEL32.dll
 0004:000003d8       __imp__GetStdHandle@4      100903d8     kernel32:KERNEL32.dll
 0004:000003dc       __imp__SetHandleCount@4    100903dc     kernel32:KERNEL32.dll
 0004:000003e0       __imp__LCMapStringW@24     100903e0     kernel32:KERNEL32.dll
 0004:000003e4       __imp__LCMapStringA@24     100903e4     kernel32:KERNEL32.dll
 0004:000003e8       __imp__SetEnvironmentVariableA@8 100903e8     kernel32:KERNEL32.dll
 0004:000003ec       __imp__HeapReAlloc@16      100903ec     kernel32:KERNEL32.dll
 0004:000003f0       __imp__VirtualAlloc@16     100903f0     kernel32:KERNEL32.dll
 0004:000003f4       __imp__VirtualFree@12      100903f4     kernel32:KERNEL32.dll
 0004:000003f8       __imp__HeapCreate@12       100903f8     kernel32:KERNEL32.dll
 0004:000003fc       __imp__HeapDestroy@4       100903fc     kernel32:KERNEL32.dll
 0004:00000400       __imp__RtlUnwind@16        10090400     kernel32:KERNEL32.dll
 0004:00000404       __imp__UnhandledExceptionFilter@4 10090404     kernel32:KERNEL32.dll
 0004:00000408       __imp__GetCurrentProcess@0 10090408     kernel32:KERNEL32.dll
 0004:0000040c       __imp__TerminateProcess@8  1009040c     kernel32:KERNEL32.dll
 0004:00000410       __imp__ExitProcess@4       10090410     kernel32:KERNEL32.dll
 0004:00000414       __imp__TlsGetValue@4       10090414     kernel32:KERNEL32.dll
 0004:00000418       __imp__SetLastError@4      10090418     kernel32:KERNEL32.dll
 0004:0000041c       __imp__TlsFree@4           1009041c     kernel32:KERNEL32.dll
 0004:00000420       __imp__TlsAlloc@0          10090420     kernel32:KERNEL32.dll
 0004:00000424       __imp__GetVersion@0        10090424     kernel32:KERNEL32.dll
 0004:00000428       __imp__GetCommandLineA@0   10090428     kernel32:KERNEL32.dll
 0004:0000042c       __imp__MoveFileA@8         1009042c     kernel32:KERNEL32.dll
 0004:00000430       __imp__DeleteFileA@4       10090430     kernel32:KERNEL32.dll
 0004:00000434       __imp__GetDriveTypeA@4     10090434     kernel32:KERNEL32.dll
 0004:00000438       __imp__GetFullPathNameA@16 10090438     kernel32:KERNEL32.dll
 0004:0000043c       __imp__GetCurrentDirectoryA@8 1009043c     kernel32:KERNEL32.dll
 0004:00000440       __imp__HeapFree@12         10090440     kernel32:KERNEL32.dll
 0004:00000444       __imp__HeapAlloc@12        10090444     kernel32:KERNEL32.dll
 0004:00000448       __imp__GetTimeZoneInformation@4 10090448     kernel32:KERNEL32.dll
 0004:0000044c       __imp__ExitThread@4        1009044c     kernel32:KERNEL32.dll
 0004:00000450       __imp__SetStdHandle@8      10090450     kernel32:KERNEL32.dll
 0004:00000454       __imp__RaiseException@16   10090454     kernel32:KERNEL32.dll
 0004:00000458       __imp__FileTimeToSystemTime@8 10090458     kernel32:KERNEL32.dll
 0004:0000045c       __imp__GetSystemTime@4     1009045c     kernel32:KERNEL32.dll
 0004:00000460       __imp__TlsSetValue@8       10090460     kernel32:KERNEL32.dll
 0004:00000464       __imp__CreateThread@24     10090464     kernel32:KERNEL32.dll
 0004:00000468       __imp__ResumeThread@4      10090468     kernel32:KERNEL32.dll
 0004:0000046c       __imp__GetSystemTimeAsFileTime@4 1009046c     kernel32:KERNEL32.dll
 0004:00000470       __imp__MultiByteToWideChar@24 10090470     kernel32:KERNEL32.dll
 0004:00000474       __imp__CreateSemaphoreA@16 10090474     kernel32:KERNEL32.dll
 0004:00000478       __imp__GetTickCount@0      10090478     kernel32:KERNEL32.dll
 0004:0000047c       __imp__GetProcAddress@8    1009047c     kernel32:KERNEL32.dll
 0004:00000480       __imp__CreateMutexA@12     10090480     kernel32:KERNEL32.dll
 0004:00000484       __imp__CloseHandle@4       10090484     kernel32:KERNEL32.dll
 0004:00000488       __imp__Sleep@4             10090488     kernel32:KERNEL32.dll
 0004:0000048c       __imp__CreateEventA@16     1009048c     kernel32:KERNEL32.dll
 0004:00000490       __imp__GetThreadPriority@4 10090490     kernel32:KERNEL32.dll
 0004:00000494       __imp__GetCurrentThread@0  10090494     kernel32:KERNEL32.dll
 0004:00000498       __imp__SetEvent@4          10090498     kernel32:KERNEL32.dll
 0004:0000049c       __imp__InterlockedIncrement@4 1009049c     kernel32:KERNEL32.dll
 0004:000004a0       __imp__ReleaseMutex@4      100904a0     kernel32:KERNEL32.dll
 0004:000004a4       __imp__WaitForSingleObject@8 100904a4     kernel32:KERNEL32.dll
 0004:000004a8       __imp__FreeLibrary@4       100904a8     kernel32:KERNEL32.dll
 0004:000004ac       __imp__GetVersionExA@4     100904ac     kernel32:KERNEL32.dll
 0004:000004b0       __imp__GetLastError@0      100904b0     kernel32:KERNEL32.dll
 0004:000004b4       __imp__LoadLibraryA@4      100904b4     kernel32:KERNEL32.dll
 0004:000004b8       __imp__FormatMessageA@28   100904b8     kernel32:KERNEL32.dll
 0004:000004bc       __imp__LeaveCriticalSection@4 100904bc     kernel32:KERNEL32.dll
 0004:000004c0       __imp__EnterCriticalSection@4 100904c0     kernel32:KERNEL32.dll
 0004:000004c4       __imp__ReadFile@20         100904c4     kernel32:KERNEL32.dll
 0004:000004c8       __imp__WriteFile@20        100904c8     kernel32:KERNEL32.dll
 0004:000004cc       __imp__GetOverlappedResult@16 100904cc     kernel32:KERNEL32.dll
 0004:000004d0       __imp__ReleaseSemaphore@12 100904d0     kernel32:KERNEL32.dll
 0004:000004d4       __imp__GetLocalTime@4      100904d4     kernel32:KERNEL32.dll
 0004:000004d8       __imp__GetFileTime@16      100904d8     kernel32:KERNEL32.dll
 0004:000004dc       __imp__FileTimeToLocalFileTime@8 100904dc     kernel32:KERNEL32.dll
 0004:000004e0       __imp__SetCurrentDirectoryA@4 100904e0     kernel32:KERNEL32.dll
 0004:000004e4       __imp__GetModuleFileNameA@12 100904e4     kernel32:KERNEL32.dll
 0004:000004e8       __imp__GetModuleHandleA@4  100904e8     kernel32:KERNEL32.dll
 0004:000004ec       __imp__GlobalMemoryStatus@4 100904ec     kernel32:KERNEL32.dll
 0004:000004f0       __imp__CreateProcessA@40   100904f0     kernel32:KERNEL32.dll
 0004:000004f4       __imp__CopyFileA@12        100904f4     kernel32:KERNEL32.dll
 0004:000004f8       __imp__GetDiskFreeSpaceA@20 100904f8     kernel32:KERNEL32.dll
 0004:000004fc       __imp__InterlockedDecrement@4 100904fc     kernel32:KERNEL32.dll
 0004:00000500       __imp__GetExitCodeProcess@8 10090500     kernel32:KERNEL32.dll
 0004:00000504       __imp__WaitForMultipleObjects@16 10090504     kernel32:KERNEL32.dll
 0004:00000508       __imp__FatalAppExitA@8     10090508     kernel32:KERNEL32.dll
 0004:0000050c       __imp__WideCharToMultiByte@32 1009050c     kernel32:KERNEL32.dll
 0004:00000510       __imp__ResetEvent@4        10090510     kernel32:KERNEL32.dll
 0004:00000514       __imp__CreateFileA@28      10090514     kernel32:KERNEL32.dll
 0004:00000518       __imp__InitializeCriticalSection@4 10090518     kernel32:KERNEL32.dll
 0004:0000051c       __imp__DeleteCriticalSection@4 1009051c     kernel32:KERNEL32.dll
 0004:00000520       __imp__GetCurrentThreadId@0 10090520     kernel32:KERNEL32.dll
 0004:00000524       __imp__GetFileSize@8       10090524     kernel32:KERNEL32.dll
 0004:00000528       __imp__SetEndOfFile@4      10090528     kernel32:KERNEL32.dll
 0004:0000052c       __imp__SetFilePointer@16   1009052c     kernel32:KERNEL32.dll
 0004:00000530       __imp__FindFirstFileA@8    10090530     kernel32:KERNEL32.dll
 0004:00000534       __imp__FindNextFileA@8     10090534     kernel32:KERNEL32.dll
 0004:00000538       __imp__FindClose@4         10090538     kernel32:KERNEL32.dll
 0004:0000053c       __imp__FlushFileBuffers@4  1009053c     kernel32:KERNEL32.dll
 0004:00000540       __imp__LockFile@20         10090540     kernel32:KERNEL32.dll
 0004:00000544       __imp__UnlockFile@20       10090544     kernel32:KERNEL32.dll
 0004:00000548       __imp__GetFileAttributesA@4 10090548     kernel32:KERNEL32.dll
 0004:0000054c       __imp__GetTempFileNameA@16 1009054c     kernel32:KERNEL32.dll
 0004:00000550       __imp__GlobalLock@4        10090550     kernel32:KERNEL32.dll
 0004:00000554       __imp__GlobalAlloc@8       10090554     kernel32:KERNEL32.dll
 0004:00000558       __imp__GlobalFree@4        10090558     kernel32:KERNEL32.dll
 0004:0000055c       __imp__GlobalUnlock@4      1009055c     kernel32:KERNEL32.dll
 0004:00000560       \177KERNEL32_NULL_THUNK_DATA 10090560     kernel32:KERNEL32.dll
 0004:00000564       __imp__Shell_NotifyIconA@8 10090564     shell32:SHELL32.dll
 0004:00000568       \177SHELL32_NULL_THUNK_DATA 10090568     shell32:SHELL32.dll
 0004:0000056c       __imp__RegisterClassA@4    1009056c     user32:USER32.dll
 0004:00000570       __imp__LoadImageA@24       10090570     user32:USER32.dll
 0004:00000574       __imp__OemToCharA@8        10090574     user32:USER32.dll
 0004:00000578       __imp__GetSysColorBrush@4  10090578     user32:USER32.dll
 0004:0000057c       __imp__LoadCursorA@8       1009057c     user32:USER32.dll
 0004:00000580       __imp__SendMessageA@16     10090580     user32:USER32.dll
 0004:00000584       __imp__CreateWindowExA@48  10090584     user32:USER32.dll
 0004:00000588       __imp__UpdateWindow@4      10090588     user32:USER32.dll
 0004:0000058c       __imp__ShowWindow@8        1009058c     user32:USER32.dll
 0004:00000590       __imp__SetWindowLongA@12   10090590     user32:USER32.dll
 0004:00000594       __imp__wsprintfA           10090594     user32:USER32.dll
 0004:00000598       __imp__SendDlgItemMessageA@20 10090598     user32:USER32.dll
 0004:0000059c       __imp__GetWindowLongA@8    1009059c     user32:USER32.dll
 0004:000005a0       __imp__DestroyWindow@4     100905a0     user32:USER32.dll
 0004:000005a4       __imp__EnableMenuItem@12   100905a4     user32:USER32.dll
 0004:000005a8       __imp__SetWindowTextA@8    100905a8     user32:USER32.dll
 0004:000005ac       __imp__CreateDialogParamA@20 100905ac     user32:USER32.dll
 0004:000005b0       __imp__GetMenu@4           100905b0     user32:USER32.dll
 0004:000005b4       __imp__PostMessageA@16     100905b4     user32:USER32.dll
 0004:000005b8       __imp__MessageBoxA@16      100905b8     user32:USER32.dll
 0004:000005bc       __imp__DefWindowProcA@16   100905bc     user32:USER32.dll
 0004:000005c0       __imp__PostQuitMessage@4   100905c0     user32:USER32.dll
 0004:000005c4       __imp__SetTimer@16         100905c4     user32:USER32.dll
 0004:000005c8       __imp__KillTimer@8         100905c8     user32:USER32.dll
 0004:000005cc       __imp__RegisterWindowMessageA@4 100905cc     user32:USER32.dll
 0004:000005d0       __imp__DispatchMessageA@4  100905d0     user32:USER32.dll
 0004:000005d4       __imp__TranslateMessage@4  100905d4     user32:USER32.dll
 0004:000005d8       __imp__LoadIconA@8         100905d8     user32:USER32.dll
 0004:000005dc       __imp__GetMessageA@16      100905dc     user32:USER32.dll
 0004:000005e0       __imp__CharUpperA@4        100905e0     user32:USER32.dll
 0004:000005e4       \177USER32_NULL_THUNK_DATA 100905e4     user32:USER32.dll
 0004:000005e8       __imp__WSAStartup@8        100905e8     wsock32:WSOCK32.dll
 0004:000005ec       __imp__WSACleanup@0        100905ec     wsock32:WSOCK32.dll
 0004:000005f0       __imp__htonl@4             100905f0     wsock32:WSOCK32.dll
 0004:000005f4       __imp__htons@4             100905f4     wsock32:WSOCK32.dll
 0004:000005f8       __imp__getsockname@12      100905f8     wsock32:WSOCK32.dll
 0004:000005fc       __imp__WSAGetLastError@0   100905fc     wsock32:WSOCK32.dll
 0004:00000600       __imp__accept@12           10090600     wsock32:WSOCK32.dll
 0004:00000604       __imp__recv@16             10090604     wsock32:WSOCK32.dll
 0004:00000608       __imp____WSAFDIsSet@8      10090608     wsock32:WSOCK32.dll
 0004:0000060c       __imp__select@20           1009060c     wsock32:WSOCK32.dll
 0004:00000610       __imp__closesocket@4       10090610     wsock32:WSOCK32.dll
 0004:00000614       __imp__connect@12          10090614     wsock32:WSOCK32.dll
 0004:00000618       __imp__socket@12           10090618     wsock32:WSOCK32.dll
 0004:0000061c       __imp__ioctlsocket@12      1009061c     wsock32:WSOCK32.dll
 0004:00000620       __imp__setsockopt@20       10090620     wsock32:WSOCK32.dll
 0004:00000624       __imp__listen@8            10090624     wsock32:WSOCK32.dll
 0004:00000628       __imp__bind@12             10090628     wsock32:WSOCK32.dll
 0004:0000062c       __imp__getpeername@12      1009062c     wsock32:WSOCK32.dll
 0004:00000630       __imp__send@16             10090630     wsock32:WSOCK32.dll
 0004:00000634       __imp__ntohl@4             10090634     wsock32:WSOCK32.dll
 0004:00000638       __imp__ntohs@4             10090638     wsock32:WSOCK32.dll
 0004:0000063c       \177WSOCK32_NULL_THUNK_DATA 1009063c     wsock32:WSOCK32.dll
 0004:00000640       __imp__GetOpenFileNameA@4  10090640     comdlg32:comdlg32.dll
 0004:00000644       \177comdlg32_NULL_THUNK_DATA 10090644     comdlg32:comdlg32.dll
 0004:00000648       __imp__uncompress          10090648     zlib:zlib.dll
 0004:0000064c       __imp__compress2           1009064c     zlib:zlib.dll
 0004:00000650       \177zlib_NULL_THUNK_DATA   10090650     zlib:zlib.dll

 entry point at        0001:00067631

 Static symbols

 0001:00065200       ?collate4setupReadCharCollationArray@@YAHPAUCOLLATE4@@PAUCODE4St@@JJ@Z 10066200 f   u4util.obj
 0001:00065310       ?collate4setupReadCharCompressionArray@@YAHPAUCOLLATE4@@PAUCODE4St@@JJ@Z 10066310 f   u4util.obj
 0001:00063d70       ?u4nameFix@@YAHPAD@Z       10064d70 f   u4name.obj
 0001:00063360       _signal4arrayWaitHere      10064360 f   S4SIGNAL.obj
 0001:00062d00       ?sort@@YAHPAPAXHHP6AHPBX1I@Z@Z 10063d00 f   S4QUICK.obj
 0001:00062990       ?sort4freeExtra@@YAHPAURELATE4St@@PAUCODE4St@@@Z 10063990 f   S4INITFR.obj
 0001:0005d910       ?f4flagIsSetFlip@@YAHPAUF4FLAG@@K@Z 1005e910 f   r4relate.obj
 0001:0005d950       ?f4flagGetNextFlip@@YAKPAUF4FLAG@@KC@Z 1005e950 f   r4relate.obj
 0001:0005dc00       ?relate4freeRelateList@@YAXPAURELATE4St@@@Z 1005ec00 f   r4relate.obj
 0001:0005df20       ?relate4doAllLow@@YAHPAURELATE4St@@E@Z 1005ef20 f   r4relate.obj
 0001:0005e580       ?relate4initRelate@@YAHPAURELATE4St@@PAURELATION4St@@PAUDATA4St@@PAUCODE4St@@HPAD@Z 1005f580 f   r4relate.obj
 0001:0005e690       ?relate4dataOpen@@YAPAUDATA4St@@PAURELATE4St@@PAU1@@Z 1005f690 f   r4relate.obj
 0001:0005e7f0       ?relate4lookup@@YAHPAURELATE4St@@C@Z 1005f7f0 f   r4relate.obj
 0001:0005e8a0       ?relate4lookupRecno@@YAHPAURELATE4St@@CPAJ@Z 1005f8a0 f   r4relate.obj
 0001:0005e930       ?relate4lookupTag@@YAHPAURELATE4St@@CPAJ@Z 1005f930 f   r4relate.obj
 0001:0005ea70       ?relate4updateScanValue@@YAHPAURELATE4St@@PAXH@Z 1005fa70 f   r4relate.obj
 0001:0005eae0       ?relate4evaluateMasterExpression@@YAHPAURELATE4St@@PAPAD@Z 1005fae0 f   r4relate.obj
 0001:0005ebe0       ?relate4tagFindLast@@YAXPAURELATE4St@@PAUTAG4FILESt@@PBDH@Z 1005fbe0 f   r4relate.obj
 0001:0005eca0       ?relate4tagSeek@@YAHPAURELATE4St@@PAUTAG4FILESt@@PBDH@Z 1005fca0 f   r4relate.obj
 0001:0005eda0       ?relate4lookupError@@YAHPAURELATE4St@@CJ@Z 1005fda0 f   r4relate.obj
 0001:0005f0b0       ?relate4currentIsChild@@YAHPAURELATE4St@@@Z 100600b0 f   r4relate.obj
 0001:0005f100       ?relate4nextRelationList@@YAHPAURELATION4St@@H@Z 10060100 f   r4relate.obj
 0001:0005f230       ?relate4blankSet@@YAHPAURELATE4St@@C@Z 10060230 f   r4relate.obj
 0001:0005f300       ?relate4nextRecordInScan@@YAHPAURELATE4St@@@Z 10060300 f   r4relate.obj
 0001:0005f620       ?relate4prevRelationList@@YAHPAURELATION4St@@H@Z 10060620 f   r4relate.obj
 0001:0005f7e0       ?relate4prevRecordInScan@@YAHPAURELATE4St@@@Z 100607e0 f   r4relate.obj
 0001:0005fbc0       ?relate4readRest@@YAHPAURELATE4St@@C@Z 10060bc0 f   r4relate.obj
 0001:0005fe30       ?relate4parent@@YAHPAURELATE4St@@0@Z 10060e30 f   r4relate.obj
 0001:0005fe60       ?relate4setNotRead@@YAXPAURELATE4St@@@Z 10060e60 f   r4relate.obj
 0001:0005fea0       ?relate4skipInternal@@YAHPAURELATE4St@@J@Z 10060ea0 f   r4relate.obj
 0001:00060110       ?relate4nextScanRecord@@YAHPAURELATION4St@@@Z 10061110 f   r4relate.obj
 0001:00060270       ?relate4prevScanRecord@@YAHPAURELATION4St@@@Z 10061270 f   r4relate.obj
 0001:00060460       ?relate4suspendInit@@YAXPAURELATE4SUSPEND@@PAUSERVER4CLIENTSt@@@Z 10061460 f   r4relate.obj
 0001:000604a0       ?relate4suspendCheck@@YAHPAURELATE4SUSPEND@@@Z 100614a0 f   r4relate.obj
 0001:000604b0       ?relate4suspend@@YAHPAURELATE4SUSPEND@@@Z 100614b0 f   r4relate.obj
 0001:00060500       ?relate4suspendInitCount@@YAHPAURELATE4SUSPEND@@@Z 10061500 f   r4relate.obj
 0001:00060680       ?relate4sortFree@@YAXPAURELATION4St@@H@Z 10061680 f   r4relate.obj
 0001:00060740       ?relate4sortGetRecord@@YAHPAURELATION4St@@JPADEPAJ@Z 10061740 f   r4relate.obj
 0001:00060a90       ?relate4sortSeek@@YAHPAURELATION4St@@@Z 10061a90 f   r4relate.obj
 0001:00060d90       ?relate4sortNextRecord@@YAHPAURELATION4St@@@Z 10061d90 f   r4relate.obj
 0001:00060df0       ?relate4sortPrevRecord@@YAHPAURELATION4St@@@Z 10061df0 f   r4relate.obj
 0001:00060f50       ?relate4topInit@@YAHPAURELATE4St@@@Z 10061f50 f   r4relate.obj
 0001:00061150       ?relate4buildScanList@@YAHPAURELATE4St@@0PAURELATION4St@@@Z 10062150 f   r4relate.obj
 0001:00061210       ?relate4sort@@YAHPAURELATE4St@@@Z 10062210 f   r4relate.obj
 0001:000616a0       ?r4dataListMassage@@YAHPAULIST4@@@Z 100626a0 f   r4relate.obj
 0001:00061d30       ?relate4countDo@@YGKPAURELATE4St@@@Z 10062d30 f   r4relate.obj
 0001:00062010       ?relate4sortSkipMaster@@YAHPAURELATION4St@@J@Z 10063010 f   r4relate.obj
 0001:0005c190       ?r4reindexStatusFinalLoop@@YAXPAUREINDEX4STATUSSt@@@Z 1005d190 f   r4reinde.obj
 0001:0005d100       ?r4reindexToDisk@@YAHPAUR4REINDEX@@PBD@Z 1005e100 f   r4reinde.obj
 0001:0005b0a0       ?log4addToList@@YAHPAUL4LOGICAL@@PAUE4INFOSt@@PAUDATA4LISTSt@@@Z 1005c0a0 f   r4log.obj
 0001:0005b140       ?dataList4add@@YAHPAUDATA4LISTSt@@PAUCODE4St@@PAURELATE4St@@@Z 1005c140 f   r4log.obj
 0001:0005b1c0       ?dataList4isIn@@YAHPAUDATA4LISTSt@@PBURELATE4St@@@Z 1005c1c0 f   r4log.obj
 0001:0005b430       ?dataList4expandFromDbTree@@YAHPAUDATA4LISTSt@@PAUCODE4St@@@Z 1005c430 f   r4log.obj
 0001:0005b4a0       ?dataList4remove@@YAHPAUDATA4LISTSt@@0@Z 1005c4a0 f   r4log.obj
 0001:0005b4f0       ?log4swapEntries@@YAHPAUL4LOGICAL@@HH@Z 1005c4f0 f   r4log.obj
 0001:0005b970       ?dataList4readRecords@@YAHPAUDATA4LISTSt@@@Z 1005c970 f   r4log.obj
 0001:00058870       ?opt4blockFlush@@YAHPAUOPT4@@PAUOPT4BLOCK@@DH@Z 10059870 f   o4opt.obj
 0001:00058b90       ?opt4fileDeleteFromBufferredBlocks@@YAXPAUFILE4St@@TFILE4LONG@@1@Z 10059b90 f   o4opt.obj
 0001:00058c90       ?opt4fileDeletePartialStart@@YAXPAUFILE4St@@TFILE4LONG@@1@Z 10059c90 f   o4opt.obj
 0001:00058d30       ?opt4fileDeleteBlock@@YAXPAUFILE4St@@TFILE4LONG@@@Z 10059d30 f   o4opt.obj
 0001:00058dd0       ?opt4fileDeletePartialEnd@@YAXPAUFILE4St@@TFILE4LONG@@1@Z 10059dd0 f   o4opt.obj
 0001:00058e80       ?file4longShiftValueLong@@YA?ATFILE4LONG@@T1@F@Z 10059e80 f   o4opt.obj
 0001:00058ea0       ?opt4fileDeleteFlushAllBuffers@@YAHPAUFILE4St@@@Z 10059ea0 f   o4opt.obj
 0001:00059770       ?opt4listLruBottomShift@@YAXPAUOPT4BLOCK@@@Z 1005a770 f   o4opt.obj
 0001:000597f0       ?opt4blockAdd@@YAHPAUOPT4BLOCK@@PAUFILE4St@@IJTFILE4LONG@@@Z 1005a7f0 f   o4opt.obj
 0001:00059840       ?file4longShiftValue@@YAITFILE4LONG@@F@Z 1005a840 f   o4opt.obj
 0001:00059850       ?opt4blockUpgradePriorityCheck@@YAXPAUOPT4BLOCK@@PAUOPT4@@@Z 1005a850 f   o4opt.obj
 0001:000599e0       ?opt4fileGetBlock@@YAPAUOPT4BLOCK@@PAUOPT4@@PAUFILE4St@@H@Z 1005a9e0 f   o4opt.obj
 0001:00059a50       ?opt4fileChooseBlock@@YAPAUOPT4BLOCK@@PAUFILE4St@@@Z 1005aa50 f   o4opt.obj
 0001:00059b80       ?opt4fileMarkAvailable@@YAXPAUOPT4@@H@Z 1005ab80 f   o4opt.obj
 0001:00059c30       ?opt4listDetermine@@YAPAUOPT4LIST@@PAUOPT4@@PAUFILE4St@@H@Z 1005ac30 f   o4opt.obj
 0001:00059c90       ?opt4timeReset@@YAXPAUOPT4@@HH@Z 1005ac90 f   o4opt.obj
 0001:00059ff0       ?opt4fileReadFile@@YAIPAUFILE4St@@TFILE4LONG@@PAD@Z 1005aff0 f   o4opt.obj
 0001:0005a290       ?opt4fileCancelReadSpBuffer@@YAXPAUFILE4St@@@Z 1005b290 f   o4opt.obj
 0001:0005a2b0       ?opt4fileReadSpBuffer@@YAXPAUFILE4St@@TFILE4LONG@@HH@Z 1005b2b0 f   o4opt.obj
 0001:0005a8d0       ?opt4fileReadToBuffer@@YAKPAUFILE4St@@PADTFILE4LONG@@I@Z 1005b8d0 f   o4opt.obj
 0001:0005a910       ?opt4fileReadAdvanceBuffer@@YAXPAUOPT4@@PAUFILE4St@@PAXTFILE4LONG@@I@Z 1005b910 f   o4opt.obj
 0001:00058040       ?mem4allocLow@@YAPAXPAUMEM4st@@@Z 10059040 f   m4memory.obj
 0001:000580a0       ?mem4allocChunkDefault@@YAPAUY4CHUNK@@PAUMEM4st@@@Z 100590a0 f   m4memory.obj
 0001:00054da0       ?bitmap4collapse@@YAPAUBITMAP4St@@PAU1@@Z 10055da0 f   m4map.obj
 0001:00054e20       ?bitmap4combineAndLe@@YAHPAUBITMAP4St@@0@Z 10055e20 f   m4map.obj
 0001:000550c0       ?bitmap4combineAndGe@@YAHPAUBITMAP4St@@0@Z 100560c0 f   m4map.obj
 0001:00055370       ?bitmap4combineAndLt@@YAHPAUBITMAP4St@@0@Z 10056370 f   m4map.obj
 0001:00055550       ?bitmap4combineAndGt@@YAHPAUBITMAP4St@@0@Z 10056550 f   m4map.obj
 0001:00055730       ?bitmap4combineAndNe@@YAHPAUBITMAP4St@@0@Z 10056730 f   m4map.obj
 0001:000559d0       ?bitmap4combineAndEq@@YAHPAUBITMAP4St@@0@Z 100569d0 f   m4map.obj
 0001:00055b90       ?bitmap4combineOrLe@@YAHPAUBITMAP4St@@0@Z 10056b90 f   m4map.obj
 0001:00055cf0       ?bitmap4combineOrGe@@YAHPAUBITMAP4St@@0@Z 10056cf0 f   m4map.obj
 0001:00055e50       ?bitmap4combineOrLt@@YAHPAUBITMAP4St@@0@Z 10056e50 f   m4map.obj
 0001:00056030       ?bitmap4combineOrGt@@YAHPAUBITMAP4St@@0@Z 10057030 f   m4map.obj
 0001:00056210       ?bitmap4combineOrEq@@YAHPAUBITMAP4St@@0@Z 10057210 f   m4map.obj
 0001:00056410       ?bitmap4combineOrNe@@YAHPAUBITMAP4St@@0@Z 10057410 f   m4map.obj
 0001:00056750       ?bitmap4free@@YAXPAUL4LOGICAL@@PAUBITMAP4St@@@Z 10057750 f   m4map.obj
 0001:00056780       ?bitmaps4free@@YAXPAUBITMAP4St@@@Z 10057780 f   m4map.obj
 0001:000567e0       ?bitmap4init@@YAPAUBITMAP4St@@PAUL4LOGICAL@@H@Z 100577e0 f   m4map.obj
 0001:000568d0       ?bitmap4can@@YAPAUBITMAP4St@@PAUL4LOGICAL@@PAHPAURELATE4St@@@Z 100578d0 f   m4map.obj
 0001:00056d10       ?bitmap4generate@@YAPAUF4FLAG@@PAUBITMAP4St@@@Z 10057d10 f   m4map.obj
 0001:00056e00       ?bitmap4flagGenerate@@YAHPAUBITMAP4St@@HPAUF4FLAG@@@Z 10057e00 f   m4map.obj
 0001:00056f60       ?bmf4AndEq@@YAJPAUBITMAP4St@@PAUF4FLAG@@J@Z 10057f60 f   m4map.obj
 0001:00056f90       ?bitmap4flagRange@@YAJPAUF4FLAG@@PAUBITMAP4St@@PAUCONST4St@@2JDDJ@Z 10057f90 f   m4map.obj
 0001:00057240       ?bmf4AndOt@@YAJPAUBITMAP4St@@PAUF4FLAG@@J@Z 10058240 f   m4map.obj
 0001:00057370       ?bmf4OrNe@@YAHPAUBITMAP4St@@PAUF4FLAG@@J@Z 10058370 f   m4map.obj
 0001:000573b0       ?bmf4OrOt@@YAJPAUBITMAP4St@@PAUF4FLAG@@PAUCODE4St@@@Z 100583b0 f   m4map.obj
 0001:000547a0       ?memo4fileNumRequiredBlocks@@YAHJF@Z 100557a0 f   m4file.obj
 0001:000547c0       ?memo4fileGetNumberBlocks@@YAIPAUMEMO4FILE@@JF@Z 100557c0 f   m4file.obj
 0001:00054820       ?memo4fileNextWritePosition@@YAJPAUMEMO4FILE@@H@Z 10055820 f   m4file.obj
 0001:000548a0       ?memo4fileGetFileHeader@@YAHPAUMEMO4FILE@@PAUMEMO4HEADER@@PAH@Z 100558a0 f   m4file.obj
 0001:00054940       ?memo4fileWriteFileHeader@@YAHPAUMEMO4FILE@@PAUMEMO4HEADER@@@Z 10055940 f   m4file.obj
 0001:00051130       ?java4messageAppend@@YAHPAUCODE4St@@PAUCONNECT4St@@PAUSERVER4CLIENTSt@@@Z 10052130 f   j4java.obj
 0001:00051190       ?java4getFields@@YAHPAUCODE4St@@PAUDATA4St@@PAUCONNECT4St@@@Z 10052190 f   j4java.obj
 0001:00051470       ?java4messageAppend2@@YAHPAUCODE4St@@PAUCONNECT4St@@PAUSERVER4CLIENTSt@@@Z 10052470 f   j4java.obj
 0001:000514d0       ?java4getFields2@@YAHPAUCODE4St@@PAUDATA4St@@PAUCONNECT4St@@@Z 100524d0 f   j4java.obj
 0001:000517d0       ?java4messageBlank@@YAHPAUCODE4St@@PAUCONNECT4St@@PAUSERVER4CLIENTSt@@@Z 100527d0 f   j4java.obj
 0001:00051800       ?java4messageBottom@@YAHPAUSERVER4CLIENTSt@@@Z 10052800 f   j4java.obj
 0001:00051830       ?java4messageClose@@YAHPAUSERVER4CLIENTSt@@@Z 10052830 f   j4java.obj
 0001:00051890       ?java4messageCreate@@YAHPAUCODE4St@@PAUCONNECT4St@@PAUSERVER4CLIENTSt@@@Z 10052890 f   j4java.obj
 0001:00051cd0       ?java4freeFieldsTags@@YAXPAUFIELD4INFO@@PAUCONNECTION4TAG_INFO@@@Z 10052cd0 f   j4java.obj
 0001:00051d50       ?java4messageCreateIndex@@YAHPAUCODE4St@@PAUCONNECT4St@@PAUSERVER4CLIENTSt@@@Z 10052d50 f   j4java.obj
 0001:00051fb0       ?java4messageDisconnect@@YAHPAUCODE4St@@PAUCONNECT4St@@PAUSERVER4CLIENTSt@@PAVSERVER4@@@Z 10052fb0 f   j4java.obj
 0001:00052040       ?java4messageGetFieldInfo@@YAHPAUCODE4St@@PAUCONNECT4St@@PAUSERVER4CLIENTSt@@@Z 10053040 f   j4java.obj
 0001:000521f0       ?java4messageGo@@YAHPAUCODE4St@@PAUCONNECT4St@@PAUSERVER4CLIENTSt@@@Z 100531f0 f   j4java.obj
 0001:00052280       ?java4messageLockGroup@@YAHPAUCODE4St@@PAUCONNECT4St@@PAUSERVER4CLIENTSt@@@Z 10053280 f   j4java.obj
 0001:000523a0       ?java4messageOpen@@YAHPAUCODE4St@@PAUCONNECT4St@@PAUSERVER4CLIENTSt@@@Z 100533a0 f   j4java.obj
 0001:000524d0       ?java4messageOpenIndex@@YAHPAUCODE4St@@PAUCONNECT4St@@PAUSERVER4CLIENTSt@@@Z 100534d0 f   j4java.obj
 0001:000525c0       ?java4messagePack@@YAHPAUSERVER4CLIENTSt@@@Z 100535c0 f   j4java.obj
 0001:000525f0       ?java4messagePosition@@YAHPAUCODE4St@@PAUCONNECT4St@@PAUSERVER4CLIENTSt@@@Z 100535f0 f   j4java.obj
 0001:00052690       ?java4messagePositionSet@@YAHPAUCODE4St@@PAUCONNECT4St@@PAUSERVER4CLIENTSt@@@Z 10053690 f   j4java.obj
 0001:000526f0       ?java4messageRecCount@@YAHPAUCODE4St@@PAUCONNECT4St@@PAUSERVER4CLIENTSt@@@Z 100536f0 f   j4java.obj
 0001:00052770       ?java4messageRecNo@@YAHPAUCODE4St@@PAUCONNECT4St@@PAUSERVER4CLIENTSt@@@Z 10053770 f   j4java.obj
 0001:000527e0       ?java4messageRegisterField@@YAHPAUCODE4St@@PAUCONNECT4St@@PAUSERVER4CLIENTSt@@@Z 100537e0 f   j4java.obj
 0001:00052b10       ?java4messageReindex@@YAHPAUSERVER4CLIENTSt@@@Z 10053b10 f   j4java.obj
 0001:00052b40       ?java4messageSeekDouble@@YAHPAUCODE4St@@PAUCONNECT4St@@PAUSERVER4CLIENTSt@@@Z 10053b40 f   j4java.obj
 0001:00052ba0       ?java4messageSeekN@@YAHPAUCODE4St@@PAUCONNECT4St@@PAUSERVER4CLIENTSt@@@Z 10053ba0 f   j4java.obj
 0001:00052c10       ?java4messageSelectData@@YAHPAUCODE4St@@PAUCONNECT4St@@PAUSERVER4CLIENTSt@@@Z 10053c10 f   j4java.obj
 0001:00052c70       ?java4messageSelectTag@@YAHPAUCODE4St@@PAUCONNECT4St@@PAUSERVER4CLIENTSt@@@Z 10053c70 f   j4java.obj
 0001:00052d10       ?java4messageSetAccessMode@@YAHPAUCODE4St@@PAUCONNECT4St@@PAUSERVER4CLIENTSt@@@Z 10053d10 f   j4java.obj
 0001:00052d30       ?java4messageSetAnyCharValue@@YAHPAUCODE4St@@PAUCONNECT4St@@PAUSERVER4CLIENTSt@@PAD@Z 10053d30 f   j4java.obj
 0001:00052d70       ?java4messageSetDefaultUnique@@YAHPAUCODE4St@@PAUCONNECT4St@@PAUSERVER4CLIENTSt@@@Z 10053d70 f   j4java.obj
 0001:00052d90       ?java4messageSetReadLock@@YAHPAUCODE4St@@PAUCONNECT4St@@PAUSERVER4CLIENTSt@@@Z 10053d90 f   j4java.obj
 0001:00052db0       ?java4messageSetReadOnly@@YAHPAUCODE4St@@PAUCONNECT4St@@PAUSERVER4CLIENTSt@@@Z 10053db0 f   j4java.obj
 0001:00052dd0       ?java4messageSetSafety@@YAHPAUCODE4St@@PAUCONNECT4St@@PAUSERVER4CLIENTSt@@@Z 10053dd0 f   j4java.obj
 0001:00052df0       ?java4messageSetUnlockAuto@@YAHPAUCODE4St@@PAUCONNECT4St@@PAUSERVER4CLIENTSt@@@Z 10053df0 f   j4java.obj
 0001:00052e10       ?java4messageSkip@@YAHPAUCODE4St@@PAUCONNECT4St@@PAUSERVER4CLIENTSt@@@Z 10053e10 f   j4java.obj
 0001:00052e80       ?java4messageStatusLow@@YAHPAUCODE4St@@PAUCONNECT4St@@PAUSERVER4CLIENTSt@@H@Z 10053e80 f   j4java.obj
 0001:00053000       ?java4messageRefreshFields@@YAHPAUCODE4St@@PAUCONNECT4St@@PAUSERVER4CLIENTSt@@@Z 10054000 f   j4java.obj
 0001:000530e0       ?java4messageStatusField@@YAHPAUCODE4St@@PAUCONNECT4St@@PAUSERVER4CLIENTSt@@PAUFIELD4St@@D@Z 100540e0 f   j4java.obj
 0001:000532a0       ?java4messageTop@@YAHPAUSERVER4CLIENTSt@@@Z 100542a0 f   j4java.obj
 0001:000532d0       ?java4messageTranCommit@@YAHPAUSERVER4CLIENTSt@@@Z 100542d0 f   j4java.obj
 0001:00053300       ?java4messageTranRollback@@YAHPAUSERVER4CLIENTSt@@@Z 10054300 f   j4java.obj
 0001:00053330       ?java4messageTranStart@@YAHPAUSERVER4CLIENTSt@@@Z 10054330 f   j4java.obj
 0001:00053360       ?java4messageUnlock@@YAHPAUCODE4St@@PAUSERVER4CLIENTSt@@@Z 10054360 f   j4java.obj
 0001:00053380       ?java4messageWrite@@YAHPAUCODE4St@@PAUCONNECT4St@@PAUSERVER4CLIENTSt@@@Z 10054380 f   j4java.obj
 0001:000533c0       ?java4messageWrite2@@YAHPAUCODE4St@@PAUCONNECT4St@@PAUSERVER4CLIENTSt@@@Z 100543c0 f   j4java.obj
 0001:00053400       ?java4socketReadDouble@@YAHPAUCODE4St@@PAUCONNECT4St@@PAND@Z 10054400 f   j4java.obj
 0001:00053490       ?java4socketReadExtended@@YAHPAUCODE4St@@PAUCONNECT4St@@PAXK@Z 10054490 f   j4java.obj
 0001:000534f0       ?java4socketReadLong@@YAHPAUCODE4St@@PAUCONNECT4St@@PAJ@Z 100544f0 f   j4java.obj
 0001:00053520       ?java4socketReadLow@@YAHPAUCODE4St@@PAUCONNECT4St@@PAXGFD@Z 10054520 f   j4java.obj
 0001:00053560       ?java4socketReadShort@@YAHPAUCODE4St@@PAUCONNECT4St@@PAF@Z 10054560 f   j4java.obj
 0001:000535a0       ?java4socketReadString@@YAHPAUCODE4St@@PAUCONNECT4St@@PAPADFPAJ@Z 100545a0 f   j4java.obj
 0001:00053690       ?java4socketSend@@YAHPAUCODE4St@@PAUCONNECT4St@@@Z 10054690 f   j4java.obj
 0001:000536e0       ?java4socketWriteDouble@@YAHPAUCODE4St@@PAUCONNECT4St@@N@Z 100546e0 f   j4java.obj
 0001:00053710       ?java4socketWriteExtended@@YAHPAUCODE4St@@PAUCONNECT4St@@PBXK@Z 10054710 f   j4java.obj
 0001:00053870       ?java4socketWriteLong@@YAHPAUCODE4St@@PAUCONNECT4St@@J@Z 10054870 f   j4java.obj
 0001:000538a0       ?java4socketWriteShort@@YAHPAUCODE4St@@PAUCONNECT4St@@F@Z 100548a0 f   j4java.obj
 0001:00050380       ?inter4releaseSignal@@YAXPAUINTER4St@@PAUSIGNAL4ROUTINESt@@@Z 10051380 f   I4THREAD.obj
 0001:0004e1e0       ?tfile4go2fox@@YAHPAUTAG4FILESt@@PBEKH@Z 1004f1e0 f   I4TAG.obj
 0001:0004ee10       ?tfile4seekDescendKey@@YAXPAUTAG4FILESt@@PAEPAHHH22@Z 1004fe10 f   I4TAG.obj
 0001:0004ef10       ?tfile4seekDescendKeyUndo@@YAXPAUTAG4FILESt@@PAEHHHHPAD@Z 1004ff10 f   I4TAG.obj
 0001:0004f590       ?tfile4setCollationSeqCollatable@@YAEPAUTAG4FILESt@@@Z 10050590 f   I4TAG.obj
 0001:0004d1e0       ?code4index@@YAPAUINDEX4St@@PAUCODE4St@@JPBD@Z 1004e1e0 f   I4LOCK.obj
 0001:0004b580       ?i4openLocal@@YAPAUINDEX4St@@PAUDATA4St@@PBD@Z 1004c580 f   i4index.obj
 0001:00049ff0       _i4createLow               1004aff0 f   i4create.obj
 0001:0004a340       ?i4canCreateIndex@@YAHPAUDATA4St@@PBD1@Z 1004b340 f   i4create.obj
 0001:0004a3c0       ?i4formatFileName@@YAXPAUDATA4St@@PADHPBD@Z 1004b3c0 f   i4create.obj
 0001:0004a410       ?i4createIndexStructures@@YAHPAUDATA4St@@PAPAUINDEX4St@@PAPAUINDEX4FILESt@@@Z 1004b410 f   i4create.obj
 0001:0004a4d0       ?i4setupIndexMemory@@YAHPAUINDEX4FILESt@@PAUCODE4St@@@Z 1004b4d0 f   i4create.obj
 0001:0004a5b0       ?i4initTagIndex@@YAHPAUTAG4FILESt@@PAUDATA4St@@PAUINDEX4FILESt@@PAD@Z 1004b5b0 f   i4create.obj
 0001:0004a750       ?i4initTagRegular@@YAHPBUTAG4INFO@@PAPAUTAG4St@@PAUDATA4St@@PAUINDEX4St@@@Z 1004b750 f   i4create.obj
 0001:0004aba0       ?i4createReindex@@YAHPAUINDEX4St@@PAUCODE4St@@@Z 1004bba0 f   i4create.obj
 0001:00048d60       _$E2                       10049d60 f   i4conv.obj
 0001:00048d70       _$E1                       10049d70 f   i4conv.obj
 0001:00049780       ?dbDate4assignLow@@YAXPAUtagDBDATE@@J@Z 1004a780 f   i4conv.obj
 0001:00047cc0       ?c4checkInit@@YAHPAUC4CHECK@@PAUCODE4St@@PAUTAG4FILESt@@JPAUDATA4St@@@Z 10048cc0 f   i4check.obj
 0001:00047d30       ?c4checkFree@@YAXPAUC4CHECK@@@Z 10048d30 f   i4check.obj
 0001:00047d60       ?c4checkRecord@@YAHPAUC4CHECK@@@Z 10048d60 f   i4check.obj
 0001:000482e0       ?i4checkBlocks@@YAHPAUINDEX4St@@@Z 100492e0 f   i4check.obj
 0001:00048660       ?getFlagFromNode@@YAKPAUINDEX4FILESt@@UB4NODE@@@Z 10049660 f   i4check.obj
 0001:000486a0       ?flag4blocks@@YAHPAUTAG4FILESt@@PAUF4FLAG@@PAUB4NODE@@22@Z 100496a0 f   i4check.obj
 0001:00047500       ?tfile4swap@@YA?AUB4NODE@@PAUB4BLOCK@@0@Z 10048500 f   i4addtag.obj
 0001:00045db0       ?i4addOneTag@@YAHPAUINDEX4St@@PBUTAG4INFO@@@Z 10046db0 f   i4add.obj
 0001:00046640       ?i4tagAssociate@@YAHPAUINDEX4St@@@Z 10047640 f   i4add.obj
 0001:00046cd0       ?i4tagRemoveBlocksFox@@YAHPAUTAG4FILESt@@PAUB4NODE@@11@Z 10047cd0 f   i4add.obj
 0001:00044140       ?file4writeLowDo@@YAIPAUFILE4St@@TFILE4LONG@@PBXI@Z 10045140 f   f4write.obj
 0001:000443a0       ?file4writeCompress@@YAIPAUFILE4St@@TFILE4LONG@@PBXI@Z 100453a0 f   f4write.obj
 0001:00044420       ?file4writeCompressDo@@YAIPAUFILE4St@@TFILE4LONG@@PBXI@Z 10045420 f   f4write.obj
 0001:00043460       ?f4assignNumericN@@YAXPAUFIELD4St@@PBDI@Z 10044460 f   F4STR.obj
 0001:00042ed0       ?file4openLow@@YAHPAUFILE4St@@PAUCODE4St@@PBD@Z 10043ed0 f   f4open.obj
 0001:00041730       ?file4lockLow@@YAHPAUFILE4St@@KJKJ@Z 10042730 f   f4lock.obj
 0001:00040f60       ?file4lowFlush@@YAHPAUFILE4St@@@Z 10041f60 f   F4FLUSH.obj
 0001:0003d440       ?compress4writeArrayPosition@@YA?ATFILE4LONG@@PAUCOMPRESS4WRITE_HEADER@@PAUFILE4St@@K@Z 1003e440 f   f4file.obj
 0001:0003d620       ?compress4handlerFileLen@@YA?ATFILE4LONG@@PAUCOMPRESS4HANDLER@@@Z 1003e620 f   f4file.obj
 0001:0003d900       ?compress4writeFreeBlock@@YAHPAUCOMPRESS4WRITE_HEADER@@PAUFILE4St@@K@Z 1003e900 f   f4file.obj
 0001:0003dc90       ?file4lenSetLowDo@@YAHPAUFILE4St@@TFILE4LONG@@@Z 1003ec90 f   f4file.obj
 0001:0003de70       ?file4compressSetLen@@YAHPAUFILE4St@@TFILE4LONG@@@Z 1003ee70 f   f4file.obj
 0001:0003e070       ?file4readLowPhysical@@YAIPAUFILE4St@@TFILE4LONG@@PAXI@Z 1003f070 f   f4file.obj
 0001:0003e850       ?file4readLowDo@@YAIPAUFILE4St@@TFILE4LONG@@PAXI@Z 1003f850 f   f4file.obj
 0001:0003e890       ?file4readDecompress@@YAIPAUFILE4St@@TFILE4LONG@@PAXI@Z 1003f890 f   f4file.obj
 0001:0003c710       ?makeNegative@@YAXPAUCURRENCY4@@PBU1@@Z 1003d710 f   F4FIELD.obj
 0001:0003d130       ?time4assign@@YAXPADKE@Z   1003e130 f   F4FIELD.obj
 0001:0003bcb0       ?file4createLow@@YAHPAUFILE4St@@PAUCODE4St@@PBD@Z 1003ccb0 f   f4create.obj
 0001:0003b980       ?file4closeCreateOptimizedFile@@YAXPAUFILE4St@@@Z 1003c980 f   f4close.obj
 0001:0003b9b0       ?file4closeCancelAdvanceRead@@YAXPAUFILE4St@@@Z 1003c9b0 f   f4close.obj
 0001:0003b9e0       ?file4closeCompleteDelayWrites@@YAXPAUFILE4St@@@Z 1003c9e0 f   f4close.obj
 0001:0003ba00       ?file4closeHandle@@YAHPAUFILE4St@@@Z 1003ca00 f   f4close.obj
 0001:0003ba10       ?file4closeRemoveTempFile@@YAHPAUFILE4St@@@Z 1003ca10 f   f4close.obj
 0001:0003ba40       ?file4closeCleanStructure@@YAXPAUFILE4St@@@Z 1003ca40 f   f4close.obj
 0001:0003ba90       ?file4closeTrackFiles@@YAXPAUFILE4St@@@Z 1003ca90 f   f4close.obj
 0001:00038c00       ?e4massage@@YAHPAUE4PARSE@@@Z 10039c00 f   e4parse.obj
 0001:000399b0       ?expr4parseFree@@YAXPAUE4PARSE@@E@Z 1003a9b0 f   e4parse.obj
 0001:00039aa0       ?e4lookupInFunctionArray@@YAHPBEHHH@Z 1003aaa0 f   e4parse.obj
 0001:00039c70       ?opToExpr@@YAHPAUE4PARSE@@@Z 1003ac70 f   e4parse.obj
 0001:00039f70       ?e4functionPop@@YAXPAUe4exprSt@@@Z 1003af70 f   e4parse.obj
 0001:00039f80       ?expr4parseStrFunction@@YAHPAUE4PARSE@@PAHH11@Z 1003af80 f   e4parse.obj
 0001:0003a0c0       ?expr4parseRightFunction@@YAHPAUE4PARSE@@HPAH1@Z 1003b0c0 f   e4parse.obj
 0001:0003a170       ?expr4parseSpaceFunction@@YAHPAUE4PARSE@@PAH@Z 1003b170 f   e4parse.obj
 0001:0003a1d0       ?expr4parsePadFunction@@YAHPAUE4PARSE@@HPAH1@Z 1003b1d0 f   e4parse.obj
 0001:0003a240       ?expr4parseSubStr2parmFunction@@YAHPAUE4PARSE@@HPAH1@Z 1003b240 f   e4parse.obj
 0001:0003a2e0       ?expr4parseSubStr3parmOrLeftFunction@@YAHPAUE4PARSE@@HPAH@Z 1003b2e0 f   e4parse.obj
 0001:0003a350       ?expr4parseDateTimeParmFunction@@YAHPAUE4PARSE@@PAHH1@Z 1003b350 f   e4parse.obj
 0001:0003a4c0       ?expr4parseSubStr2parmPart2Function@@YAHPAUE4PARSE@@HPAH@Z 1003b4c0 f   e4parse.obj
 0001:0003a530       ?expr4parseParamaters@@YAHPAUE4PARSE@@@Z 1003b530 f   e4parse.obj
 0001:0003a630       ?expr4parseLookup@@YAHPAUE4PARSE@@PBDHPAPAUEXPR4CALCSt@@PAPAX@Z 1003b630 f   e4parse.obj
 0001:0003a800       ?expr4parseValueRightBracket@@YAHPAUE4PARSE@@@Z 1003b800 f   e4parse.obj
 0001:0003a8b0       ?expr4parseValueLogical@@YAHPAUE4PARSE@@H@Z 1003b8b0 f   e4parse.obj
 0001:0003a920       ?expr4parseValueString@@YAHPAUE4PARSE@@@Z 1003b920 f   e4parse.obj
 0001:0003a9d0       ?expr4parseValueReal@@YAHPAUE4PARSE@@@Z 1003b9d0 f   e4parse.obj
 0001:0003ab50       ?expr4parseValueFunctionOrField@@YAHPAUE4PARSE@@@Z 1003bb50 f   e4parse.obj
 0001:0003abe0       ?expr4parseField@@YAHPAUE4PARSE@@PBDH@Z 1003bbe0 f   e4parse.obj
 0001:0003ae60       ?getData4fromName@@YAPAUDATA4St@@PAUE4PARSE@@PBDH@Z 1003be60 f   e4parse.obj
 0001:0003aee0       ?getV4functionsIndexFromFieldType@@YAHPAUCODE4St@@H@Z 1003bee0 f   e4parse.obj
 0001:0003b020       ?s4stackPop@@YAHPAUS4STACK@@@Z 1003c020 f   e4parse.obj
 0001:0003b040       ?s4stackCur@@YAHPAUS4STACK@@@Z 1003c040 f   e4parse.obj
 0001:0003b060       ?s4stackPushInt@@YAHPAUS4STACK@@H@Z 1003c060 f   e4parse.obj
 0001:0003b080       ?s4stackPushStr@@YAHPAUS4STACK@@PBXH@Z 1003c080 f   e4parse.obj
 0001:0003b170       ?s4scanChar@@YAEPAUS4SCAN@@@Z 1003c170 f   e4parse.obj
 0001:0003b190       ?s4scanInit@@YAXPAUS4SCAN@@PBE@Z 1003c190 f   e4parse.obj
 0001:0003b1c0       ?s4scanRange@@YAHPAUS4SCAN@@HH@Z 1003c1c0 f   e4parse.obj
 0001:0003b200       ?s4scanSearch@@YAHPAUS4SCAN@@D@Z 1003c200 f   e4parse.obj
 0001:00034cc0       ?expr4stop@@YAXPAUCODE4St@@@Z 10035cc0 f   E4EXPR.obj
 0001:00034e10       ?expr4keyConvertIndexDependent@@YAHPAUe4exprSt@@PAPADHH@Z 10035e10 f   E4EXPR.obj
 0001:00035140       ?expr4keyConvertIndexStr@@YAHPAUe4exprSt@@PAPADHPAUTAG4FILESt@@@Z 10036140 f   E4EXPR.obj
 0001:000352d0       ?collate4convertUnicodeToMachineKey@@YAHPAUCOLLATE4@@PADPBDI@Z 100362d0 f   E4EXPR.obj
 0001:00034590       ?error4logAppendNewLine@@YAXPAUFILE4St@@@Z 10035590 f   e4error.obj
 0001:00031f80       ?d4writeKeysOneTag@@YAHPAUDATA4St@@PAUTAG4St@@PADPAHJ@Z 10032f80 f   D4WRITE.obj
 0001:000324a0       ?d4writeKeysRemoveKeys@@YAHPAUDATA4St@@PAUTAG4St@@PADJ@Z 100334a0 f   D4WRITE.obj
 0001:00032560       ?d4unwriteKeys@@YAHPAUDATA4St@@J@Z 10033560 f   D4WRITE.obj
 0001:00030dc0       ?d4unlockDo@@YAHPAUDATA4St@@JD@Z 10031dc0 f   d4unlock.obj
 0001:00031020       ?d4hasLocks@@YAHPAUDATA4St@@JJ@Z 10032020 f   d4unlock.obj
 0001:00025790       ?server4clientFromId@@YAPAUSERVER4CLIENTSt@@PAVSERVER4@@J@Z 10026790 f   d4serv2.obj
 0001:000261e0       ?server4clientTransPhaseTwoInternal@@YAHPAUSERVER4CLIENTSt@@@Z 100271e0 f   d4serv2.obj
 0001:00026210       ?server4clientLogDisableIfTemp@@YAXPAUSERVER4CLIENTSt@@@Z 10027210 f   d4serv2.obj
 0001:000263d0       ?server4clientActiveTransactions@@YAEPAVSERVER4@@@Z 100273d0 f   d4serv2.obj
 0001:00028420       _server4clientCloseData    10029420 f   d4serv2.obj
 0001:00028a20       ?server4clientSendMemos@@YAHPAUSERVER4CLIENTSt@@PAUDATA4St@@@Z 10029a20 f   d4serv2.obj
 0001:0002a330       ?server4clientOpenInfoOutPrepare@@YAHPAUSERVER4CLIENTSt@@PAUDATA4St@@@Z 1002b330 f   d4serv2.obj
 0001:0002bd30       ?connect4sendMemos@@YAXPAUCONNECT4St@@PAUDATA4St@@@Z 1002cd30 f   d4serv2.obj
 0001:0002cd60       ?server4clientRelateCreateSlaves@@YAHPAUSERVER4CLIENTSt@@PAUCONNECTION4RELATE_INIT_INFO_IN@@PAUCONNECTION4RELATE@@PAURELATE4St@@PAI@Z 1002dd60 f   d4serv2.obj
 0001:0002d150       ?client4getRelation@@YAPAURELATION4St@@PAUSERVER4CLIENTSt@@K@Z 1002e150 f   d4serv2.obj
 0001:0002d1a0       ?server4clientRelatePackBatch@@YAHPAUCONNECT4St@@PAURELATION4St@@F@Z 1002e1a0 f   d4serv2.obj
 0001:0002d340       ?server4clientRelatePack@@YAHPAUSERVER4CLIENTSt@@PAURELATION4St@@F@Z 1002e340 f   d4serv2.obj
 0001:0002d710       ?client4getRelate@@YAPAURELATE4St@@PAURELATION4St@@G@Z 1002e710 f   d4serv2.obj
 0001:0002ef20       ?server4clientMessageSendInitUndo@@YAXPAUSERVER4CLIENTSt@@PAUMESSAGE4SEND@@@Z 1002ff20 f   d4serv2.obj
 0001:0002ef50       ?server4clientMessageRecvInitUndo@@YAXPAUSERVER4CLIENTSt@@PAUMESSAGE4RECEIVESt@@@Z 1002ff50 f   d4serv2.obj
 0001:0002efa0       ?server4pipeGet@@YAPAUPIPE4@@PAVSERVER4@@K@Z 1002ffa0 f   d4serv2.obj
 0001:0002efd0       ?server4clientMessageCancelAll@@YAXPAUSERVER4CLIENTSt@@@Z 1002ffd0 f   d4serv2.obj
 0001:0002f030       ?server4pipeRemoveClientPipes@@YAXPAVSERVER4@@PAUSERVER4CLIENTSt@@@Z 10030030 f   d4serv2.obj
 0001:0002f080       ?server4pipeInitUndo@@YAXPAVSERVER4@@PAUPIPE4@@@Z 10030080 f   d4serv2.obj
 0001:0002fb70       ?c4getFuncPtr@@YAHPAUHINSTANCE__@@PBDPAPAX@Z 10030b70 f   d4serv2.obj
 0001:00023780       ?server4transactionLock@@YAHPAVSERVER4@@@Z 10024780 f   d4server.obj
 0001:00021ad0       ?server4initTransactions@@YAHPAUCODE4St@@PAVSERVER4@@HPAD@Z 10022ad0 f   d4server.obj
 0001:00022140       ?server4disconnectAllClients@@YAHPAVSERVER4@@@Z 10023140 f   d4server.obj
 0001:00023780       ?server4clientSetSlowDelay@@YAHPAUSERVER4CLIENTSt@@@Z 10024780 f   d4server.obj
 0001:00023db0       ?server4errorOut@@YAXPAUCODE4St@@HJPBD11@Z 10024db0 f   d4server.obj
 0001:0001ea60       ?d4seekCheck@@YAHPAUDATA4St@@PAUTAG4FILESt@@HPBDH@Z 1001fa60 f   D4SEEK.obj
 0001:0001ed70       ?d4seekMatch@@YAHPAUDATA4St@@PAUTAG4FILESt@@PBDF@Z 1001fd70 f   D4SEEK.obj
 0001:0001ef80       ?data4seekConvertKeyToTagFormat@@YAHPAUDATA4St@@HPBDPAD@Z 1001ff80 f   D4SEEK.obj
 0001:0001f060       ?d4seekSynchToCurrentPos@@YAHPAUDATA4St@@PAPAEPAH@Z 10020060 f   D4SEEK.obj
 0001:0001cb70       ?d4packStatusInit@@YAXPAUREINDEX4STATUSSt@@PAUDATA4St@@@Z 1001db70 f   d4pack.obj
 0001:0001cc30       ?d4packStatusFinalSet@@YAXPAUREINDEX4STATUSSt@@N@Z 1001dc30 f   d4pack.obj
 0001:0001bd20       ?code4freeBlocks@@YAHPAUCODE4St@@@Z 1001cd20 f   D4OPT.obj
 0001:0001c3a0       ?opt4freeAlloc@@YAXPAUOPT4@@@Z 1001d3a0 f   D4OPT.obj
 0001:0001c670       ?opt4initAlloc@@YAHPAUCODE4St@@H@Z 1001d670 f   D4OPT.obj
 0001:00019db0       ?d4openInit@@YAPAUDATA4St@@PAUCODE4St@@@Z 1001adb0 f   D4OPEN.obj
 0001:00019e90       ?d4openConclude@@YAHPAUDATA4St@@PBDPAD@Z 1001ae90 f   D4OPEN.obj
 0001:0001a020       ?d4openConcludeAllocateRecord@@YAXPAUDATA4St@@@Z 1001b020 f   D4OPEN.obj
 0001:0001a0d0       ?d4openConcludeSetupMemo@@YAXPAUDATA4St@@@Z 1001b0d0 f   D4OPEN.obj
 0001:0001a1c0       ?d4openConcludeSetupFields@@YAXPAUDATA4St@@PAD@Z 1001b1c0 f   D4OPEN.obj
 0001:0001a4e0       ?d4openConcludeBlankRecord@@YAXPAUDATA4St@@@Z 1001b4e0 f   D4OPEN.obj
 0001:0001a580       ?d4openConcludeSetupIndex@@YAXPAUDATA4St@@PBD@Z 1001b580 f   D4OPEN.obj
 0001:0001a750       ?data4reopen@@YAPAUDATA4FILESt@@PAU1@PAPAD@Z 1001b750 f   D4OPEN.obj
 0001:0001a7f0       ?data4reopenCheckIfMustClose@@YAHPAPAUDATA4FILESt@@@Z 1001b7f0 f   D4OPEN.obj
 0001:0001a840       ?data4reopenCloseData@@YAHPAPAUDATA4FILESt@@@Z 1001b840 f   D4OPEN.obj
 0001:0001a8b0       ?data4reopenVerifyDesiredAccessAvail@@YAHPBUDATA4FILESt@@@Z 1001b8b0 f   D4OPEN.obj
 0001:0001a980       ?dfile4checkAccess@@YAHPBUDATA4FILESt@@HH@Z 1001b980 f   D4OPEN.obj
 0001:0001aa20       ?dfile4accesses@@YAXPBUDATA4FILESt@@PAH11@Z 1001ba20 f   D4OPEN.obj
 0001:0001ab80       ?data4reopenAttemptUpgrade@@YAHPAUDATA4FILESt@@H@Z 1001bb80 f   D4OPEN.obj
 0001:0001ad40       ?index4reopenAttemptUpgrade@@YAHPAUDATA4FILESt@@@Z 1001bd40 f   D4OPEN.obj
 0001:0001ad70       ?index4attemptUpgrade@@YAHPAUINDEX4FILESt@@@Z 1001bd70 f   D4OPEN.obj
 0001:0001b050       ?dfile4openVerifyInputs@@YAHPAUCODE4St@@PAUDATA4St@@PBDPAPAD@Z 1001c050 f   D4OPEN.obj
 0001:0001b090       ?dfile4openGetData4ifOpen@@YAPAUDATA4FILESt@@PAUCODE4St@@PBDPAPAD@Z 1001c090 f   D4OPEN.obj
 0001:0001b0c0       ?dfile4setup@@YAHPAUDATA4FILESt@@PADPAK@Z 1001c0c0 f   D4OPEN.obj
 0001:0001b4e0       ?dfile4setupFields@@YAHPAUDATA4FILESt@@PBDK@Z 1001c4e0 f   D4OPEN.obj
 0001:0001b900       ?dfile4openSetNumFields@@YAFPAUDATA4FILESt@@I@Z 1001c900 f   D4OPEN.obj
 0001:0001b9d0       ?d4compressInit@@YAHPAUDATA4FILESt@@@Z 1001c9d0 f   D4OPEN.obj
 0001:000183d0       ?d4fieldsAddVerifyInputs@@YA?AW4verify4results@@PAUDATA4St@@FPAUFIELD4INFO@@@Z 100193d0 f   D4MODIFY.obj
 0001:000184c0       ?d4copy@@YAHPAUDATA4St@@0F@Z 100194c0 f   D4MODIFY.obj
 0001:000186a0       ?createAndCloseEmptyFile@@YAHPAUCODE4St@@PBDPADD@Z 100196a0 f   D4MODIFY.obj
 0001:00018710       ?createReplacementFile@@YAHPAUCODE4St@@PAUFILE4St@@PBDD@Z 10019710 f   D4MODIFY.obj
 0001:00018880       ?getField4infoWithRoom@@YAPAUFIELD4INFO@@PAUDATA4St@@HPAU1@@Z 10019880 f   D4MODIFY.obj
 0001:00018990       ?d4fieldsAddCreate@@YAPAUDATA4St@@PAU1@PADPBUFIELD4INFO@@@Z 10019990 f   D4MODIFY.obj
 0001:00018df0       ?d4copyFields@@YAHPAUDATA4St@@0@Z 10019df0 f   D4MODIFY.obj
 0001:000197a0       ?i4infoExtFree@@YAXPAUI4INFO_EXT@@@Z 1001a7a0 f   D4MODIFY.obj
 0001:00019830       ?i4infoExtInfo@@YAXPAUDATA4St@@PAUI4INFO_EXT@@PAUINDEX4St@@PAUTAG4INFO@@@Z 1001a830 f   D4MODIFY.obj
 0001:00016500       ?initAboutLicense@@YAXPAUHWND__@@J@Z 10017500 f   d4main.obj
 0001:00017750       ?server4securityCheck@@YAHPAUCODE4St@@@Z 10018750 f   d4main.obj
 0001:00013170       ?c4dayOfYear@@YAHHHH@Z     10014170 f   D4DATE.obj
 0001:0000fa40       ?d4createClose@@YAXPAUCODE4St@@PAUDATA4St@@H@Z 10010a40 f   D4CREATE.obj
 0001:00010410       ?calculateRecordLength@@YAJPAUCODE4St@@PBUFIELD4INFO@@PAGPAH3PAE44@Z 10011410 f   D4CREATE.obj
 0001:000108b0       ?calculateHeaderLength@@YAJPAUCODE4St@@GHEPBUFIELD4INFO@@@Z 100118b0 f   D4CREATE.obj
 0001:00010990       ?dfile4createFile@@YAHPAUCODE4St@@PAUFILE4St@@PADHPAPADPAH@Z 10011990 f   D4CREATE.obj
 0001:00010a80       ?dfile4createHeader@@YAHPAUCODE4St@@HPAUFILE4St@@JGPBUFIELD4INFO@@HPAHEEEEE@Z 10011a80 f   D4CREATE.obj
 0001:00011250       ?dfile4createHeaderImageSet@@YAXPAUFIELD4IMAGE@@EED@Z 10012250 f   D4CREATE.obj
 0001:00011270       ?dfile4createCalcHeaderLen@@YAGPAUCODE4St@@HHEPBUFIELD4INFO@@@Z 10012270 f   D4CREATE.obj
 0001:00011330       ?dfile4createIndex@@YAXPAUDATA4St@@PBUTAG4INFO@@PBD@Z 10012330 f   D4CREATE.obj
 0001:000116d0       ?d4compressLow@@YAPAUDATA4St@@PAPAU1@PBDFE@Z 100126d0 f   D4CREATE.obj
 0001:00011c20       ?d4compressTempCopy@@YAPAUDATA4St@@PAU1@@Z 10012c20 f   D4CREATE.obj
 0001:00011ea0       ?compress4handlerAssignOffset@@YAXPAUCOMPRESS4HANDLER@@KTFILE4LONG@@G@Z 10012ea0 f   D4CREATE.obj
 0001:00011f20       ?compress4handlerInit@@YAPAUCOMPRESS4HANDLER@@PAUDATA4St@@PAUDATA4FILESt@@FPAK@Z 10012f20 f   D4CREATE.obj
 0001:0000df50       ?d4appendVerifyInputs@@YAHPAUDATA4St@@@Z 1000ef50 f   D4APPEND.obj
 0001:0000dfb0       ?d4appendLow@@YAHPAUDATA4St@@PAHPAJ@Z 1000efb0 f   D4APPEND.obj
 0001:0000e110       ?d4incrementAutoIncrementValue@@YAXPAUDATA4St@@@Z 1000f110 f   D4APPEND.obj
 0001:0000e130       ?d4assignAutoIncrementField@@YAXPAUDATA4St@@@Z 1000f130 f   D4APPEND.obj
 0001:0000e150       ?d4doAppend@@YAHPAUDATA4St@@@Z 1000f150 f   D4APPEND.obj
 0001:0000e200       ?d4appendUnlock@@YAXPAUDATA4St@@EJJ@Z 1000f200 f   D4APPEND.obj
 0001:0000e250       ?d4appendUpdateIndexesCancel@@YAXPAUDATA4St@@PAUTAG4St@@JJ@Z 1000f250 f   D4APPEND.obj
 0001:0000e290       ?d4appendUpdateIndexes@@YAHPAUDATA4St@@JJPAE@Z 1000f290 f   D4APPEND.obj
 0001:0000e370       ?d4appendLockIndexes@@YAHPAUDATA4St@@PAEJJ@Z 1000f370 f   D4APPEND.obj
 0001:0000e3b0       ?d4appendUpdateMemos@@YAHPAUDATA4St@@@Z 1000f3b0 f   D4APPEND.obj
 0001:0000e470       ?d4appendUpdateData@@YAHPAUDATA4St@@@Z 1000f470 f   D4APPEND.obj
 0001:0000e4b0       ?dfile4appendData@@YAHPAUDATA4FILESt@@PBXPAJ@Z 1000f4b0 f   D4APPEND.obj
 0001:0000e550       ?d4appendRegisterTransaction@@YAHPAUDATA4St@@H@Z 1000f550 f   D4APPEND.obj
 0001:0000e730       ?d4appendRegisterTransactionFinish@@YAHPAUDATA4St@@HPAH@Z 1000f730 f   D4APPEND.obj
 0001:0000e820       ?d4appendFindDeletedRow@@YAEPAUDATA4St@@@Z 1000f820 f   D4APPEND.obj
 0001:0000ee00       ?d4unappendData@@YAHPAUDATA4St@@@Z 1000fe00 f   D4APPEND.obj
 0001:0000ac20       ?tran4fileLowStatusFile@@YAHPAUTRAN4FILE_LOWSt@@@Z 1000bc20 f   c4trans.obj
 0001:0000aec0       ?tran4fileRead@@YAHPAUTRAN4FILESt@@KPAULOG4HEADER@@PAPADPAI@Z 1000bec0 f   c4trans.obj
 0001:0000af00       ?tran4fileLowRead@@YAHPAUTRAN4FILE_LOWSt@@KPAULOG4HEADER@@PAPADPAI@Z 1000bf00 f   c4trans.obj
 0001:0000b390       ?tran4getTransId@@YAJPAUTRAN4St@@@Z 1000c390 f   c4trans.obj
 0001:0000b3b0       ?tran4fileGetNextTransId@@YAJPAUTRAN4FILESt@@PAUTRAN4St@@@Z 1000c3b0 f   c4trans.obj
 0001:0000bfd0       ?tran4lowUpdate@@YAHPAUTRAN4St@@@Z 1000cfd0 f   c4trans.obj
 0001:0000c180       ?tran4lowRemoveKeys@@YAHPAUTRAN4St@@@Z 1000d180 f   c4trans.obj
 0001:0000c360       ?tran4updateData@@YAHPAUTRAN4St@@@Z 1000d360 f   c4trans.obj
 0001:0000cba0       ?code4transInitUndoMarkShutdown@@YAXPAUCODE4TRANSSt@@@Z 1000dba0 f   c4trans.obj
 0001:0000ccc0       ?tran4fileLowLenUpdate@@YAXPAUTRAN4FILE_LOWSt@@@Z 1000dcc0 f   c4trans.obj
 0001:0000ce60       ?tran4unlock@@YAXPAUs4singleDistantSt@@0@Z 1000de60 f   c4trans.obj
 0001:0000cea0       ?tran4dataFull@@YAPAUDATA4St@@PAUTRAN4St@@JJ@Z 1000dea0 f   c4trans.obj
 0001:00009280       ?bitmap4redistributeShrink@@YAPAUBITMAP4St@@PAU1@0@Z 1000a280 f   C4CONST.obj
 0001:00009380       ?bitmap4redistributeChildren@@YAXPAUBITMAP4St@@@Z 1000a380 f   C4CONST.obj
 0001:000093c0       ?bitmap4redistributeCombine@@YAHPAUBITMAP4St@@PAPAU1@1@Z 1000a3c0 f   C4CONST.obj
 0001:000095a0       ?bitmap4redistributeSplit@@YAHPAUBITMAP4St@@PAPAU1@10@Z 1000a5a0 f   C4CONST.obj
 0001:000097d0       ?bitmap4constantCombine@@YAHPAUBITMAP4St@@0PAUCONST4St@@H@Z 1000a7d0 f   C4CONST.obj
 0001:00008430       _connection4disconnect     10009430 f   c4com.obj
 0001:00008830       ?connection4verifyMessageType@@YAEF@Z 10009830 f   c4com.obj
 0001:00007fd0       ?connect4BufferVerifyConnection@@YAXPAUCONNECT4BUFFERSt@@PAUNET4MESSAGE@@@Z 10008fd0 f   C4THREAD.obj
 0001:00006d40       ?connect4lowInit@@YAHPAUCONNECT4LOWSt@@HPAUCODE4St@@@Z 10007d40 f   c4conlow.obj
 0001:000070a0       ?connect4lowReadDo@@YAHPAUCONNECT4LOWSt@@PADHJ@Z 100080a0 f   c4conlow.obj
 0001:000071f0       ?getSockErr@@YAHH@Z        100081f0 f   c4conlow.obj
 0001:00007310       ?connect4lowCompress@@YAHPAUCONNECT4LOWSt@@PAEH1@Z 10008310 f   c4conlow.obj
 0001:000073a0       ?connect4lowWriteDo@@YAHPAUCONNECT4LOWSt@@PADH@Z 100083a0 f   c4conlow.obj
 0001:00005940       ?connect4bufferReadRetrieve@@YAPAUNET4MESSAGE@@PAUCONNECT4BUFFERSt@@H@Z 10006940 f   c4buffer.obj
 0001:00005cc0       ?error4describeIsolated@@YAHPAUCODE4St@@PAUSERVER4CLIENTSt@@HJPBD22@Z 10006cc0 f   c4buffer.obj
 0001:00005d00       ?connect4bufferReadRetrieveDo@@YAPAUNET4MESSAGE@@PAUCONNECT4BUFFERSt@@H@Z 10006d00 f   c4buffer.obj
 0001:00005f10       ?connect4bufferReadRetrieveInfo@@YAPAUNET4MESSAGE@@PAUCONNECT4BUFFERSt@@HPAGPAE2@Z 10006f10 f   c4buffer.obj
 0001:000061e0       ?connect4bufferGetWriteBuffer@@YAPAUNET4MESSAGE@@PAUCONNECT4BUFFERSt@@@Z 100071e0 f   c4buffer.obj
 0001:00003620       ?code4initUndo2@@YAHPAUCODE4St@@H@Z 10004620 f   C4CODE.obj
 0001:00004e20       ?c4encryptLoad@@YAHPAUCODE4St@@F@Z 10005e20 f   C4CODE.obj
 0001:00005180       ?c4getFuncPtr@@YAXPAUHINSTANCE__@@PBDPAPAXPAJ@Z 10006180 f   C4CODE.obj
 0001:000051b0       ?c4encryptUnload@@YAXPAUCODE4St@@@Z 100061b0 f   C4CODE.obj
 0001:00005210       ?code4encryptFileInitUndo@@YAXPAUCODE4St@@@Z 10006210 f   C4CODE.obj
 0001:00002810       ?c4dtoa45Low@@YAHNPADHHE@Z 10003810 f   c4.obj
 0001:00000a20       ?b4insertBranchBalance@@YAHPAUB4BLOCK@@@Z 10001a20 f   b4block.obj
 0001:000706d1       _IsRootUNCName             100716d1 f   LIBCMT:stat.obj
 0001:0006f9e5       _xtoa                      100709e5 f   LIBCMT:xtoa.obj
 0001:0006f1f1       _flsall                    100701f1 f   LIBCMT:fflush.obj
 0001:0006e783       _findenv                   1006f783 f   LIBCMT:setenv.obj
 0001:0006e7db       _copy_environ              1006f7db f   LIBCMT:setenv.obj
 0001:0006e3b5       _getSystemCP               1006f3b5 f   LIBCMT:mbctype.obj
 0001:0006e3ff       _CPtoLCID                  1006f3ff f   LIBCMT:mbctype.obj
 0001:0006e432       _setSBCS                   1006f432 f   LIBCMT:mbctype.obj
 0001:0006e45b       _setSBUpLow                1006f45b f   LIBCMT:mbctype.obj
 0001:0006e1dd       _strncnt                   1006f1dd f   LIBCMT:a_cmp.obj
 0001:0006dede       _wcsncnt                   1006eede f   LIBCMT:w_map.obj
 0001:0006da10       LeadUp1                    1006ea10 f   LIBCMT:memcpy.obj
 0001:0006da3c       LeadUp2                    1006ea3c f   LIBCMT:memcpy.obj
 0001:0006da60       LeadUp3                    1006ea60 f   LIBCMT:memcpy.obj
 0001:0006dadf       UnwindUp0                  1006eadf f   LIBCMT:memcpy.obj
 0001:0006dacc       UnwindUp1                  1006eacc f   LIBCMT:memcpy.obj
 0001:0006dac4       UnwindUp2                  1006eac4 f   LIBCMT:memcpy.obj
 0001:0006dabc       UnwindUp3                  1006eabc f   LIBCMT:memcpy.obj
 0001:0006dab4       UnwindUp4                  1006eab4 f   LIBCMT:memcpy.obj
 0001:0006daac       UnwindUp5                  1006eaac f   LIBCMT:memcpy.obj
 0001:0006daa4       UnwindUp6                  1006eaa4 f   LIBCMT:memcpy.obj
 0001:0006da9c       UnwindUp7                  1006ea9c f   LIBCMT:memcpy.obj
 0001:0006daf8       TrailUp0                   1006eaf8 f   LIBCMT:memcpy.obj
 0001:0006db00       TrailUp1                   1006eb00 f   LIBCMT:memcpy.obj
 0001:0006db0c       TrailUp2                   1006eb0c f   LIBCMT:memcpy.obj
 0001:0006db20       TrailUp3                   1006eb20 f   LIBCMT:memcpy.obj
 0001:0006db98       LeadDown1                  1006eb98 f   LIBCMT:memcpy.obj
 0001:0006dbb8       LeadDown2                  1006ebb8 f   LIBCMT:memcpy.obj
 0001:0006dbe0       LeadDown3                  1006ebe0 f   LIBCMT:memcpy.obj
 0001:0006dc34       UnwindDown7                1006ec34 f   LIBCMT:memcpy.obj
 0001:0006dc3c       UnwindDown6                1006ec3c f   LIBCMT:memcpy.obj
 0001:0006dc44       UnwindDown5                1006ec44 f   LIBCMT:memcpy.obj
 0001:0006dc4c       UnwindDown4                1006ec4c f   LIBCMT:memcpy.obj
 0001:0006dc54       UnwindDown3                1006ec54 f   LIBCMT:memcpy.obj
 0001:0006dc5c       UnwindDown2                1006ec5c f   LIBCMT:memcpy.obj
 0001:0006dc64       UnwindDown1                1006ec64 f   LIBCMT:memcpy.obj
 0001:0006dc77       UnwindDown0                1006ec77 f   LIBCMT:memcpy.obj
 0001:0006dc90       TrailDown0                 1006ec90 f   LIBCMT:memcpy.obj
 0001:0006dc98       TrailDown1                 1006ec98 f   LIBCMT:memcpy.obj
 0001:0006dca8       TrailDown2                 1006eca8 f   LIBCMT:memcpy.obj
 0001:0006dcbc       TrailDown3                 1006ecbc f   LIBCMT:memcpy.obj
 0001:0006c964       label0                     1006d964 f   LIBCMT:adj_fdiv.obj
 0001:0006c96a       label1                     1006d96a f   LIBCMT:adj_fdiv.obj
 0001:0006c96f       label2                     1006d96f f   LIBCMT:adj_fdiv.obj
 0001:0006c975       label3                     1006d975 f   LIBCMT:adj_fdiv.obj
 0001:0006c97a       label4                     1006d97a f   LIBCMT:adj_fdiv.obj
 0001:0006c980       label5                     1006d980 f   LIBCMT:adj_fdiv.obj
 0001:0006c986       label6                     1006d986 f   LIBCMT:adj_fdiv.obj
 0001:0006c98c       label7                     1006d98c f   LIBCMT:adj_fdiv.obj
 0001:0006c992       label8                     1006d992 f   LIBCMT:adj_fdiv.obj
 0001:0006c9ae       label9                     1006d9ae f   LIBCMT:adj_fdiv.obj
 0001:0006c9b3       label10                    1006d9b3 f   LIBCMT:adj_fdiv.obj
 0001:0006c9c9       label11                    1006d9c9 f   LIBCMT:adj_fdiv.obj
 0001:0006c9ce       label12                    1006d9ce f   LIBCMT:adj_fdiv.obj
 0001:0006c9ea       label13                    1006d9ea f   LIBCMT:adj_fdiv.obj
 0001:0006c9fa       label14                    1006d9fa f   LIBCMT:adj_fdiv.obj
 0001:0006ca0e       label15                    1006da0e f   LIBCMT:adj_fdiv.obj
 0001:0006ca1e       label16                    1006da1e f   LIBCMT:adj_fdiv.obj
 0001:0006ca3e       label17                    1006da3e f   LIBCMT:adj_fdiv.obj
 0001:0006ca43       label18                    1006da43 f   LIBCMT:adj_fdiv.obj
 0001:0006ca5d       label19                    1006da5d f   LIBCMT:adj_fdiv.obj
 0001:0006ca62       label20                    1006da62 f   LIBCMT:adj_fdiv.obj
 0001:0006ca82       label21                    1006da82 f   LIBCMT:adj_fdiv.obj
 0001:0006ca96       label22                    1006da96 f   LIBCMT:adj_fdiv.obj
 0001:0006caae       label23                    1006daae f   LIBCMT:adj_fdiv.obj
 0001:0006cac2       label24                    1006dac2 f   LIBCMT:adj_fdiv.obj
 0001:0006cae2       label25                    1006dae2 f   LIBCMT:adj_fdiv.obj
 0001:0006cae7       label26                    1006dae7 f   LIBCMT:adj_fdiv.obj
 0001:0006cb01       label27                    1006db01 f   LIBCMT:adj_fdiv.obj
 0001:0006cb06       label28                    1006db06 f   LIBCMT:adj_fdiv.obj
 0001:0006cb26       label29                    1006db26 f   LIBCMT:adj_fdiv.obj
 0001:0006cb3a       label30                    1006db3a f   LIBCMT:adj_fdiv.obj
 0001:0006cb52       label31                    1006db52 f   LIBCMT:adj_fdiv.obj
 0001:0006cb66       label32                    1006db66 f   LIBCMT:adj_fdiv.obj
 0001:0006cb86       label33                    1006db86 f   LIBCMT:adj_fdiv.obj
 0001:0006cb8b       label34                    1006db8b f   LIBCMT:adj_fdiv.obj
 0001:0006cba5       label35                    1006dba5 f   LIBCMT:adj_fdiv.obj
 0001:0006cbaa       label36                    1006dbaa f   LIBCMT:adj_fdiv.obj
 0001:0006cbca       label37                    1006dbca f   LIBCMT:adj_fdiv.obj
 0001:0006cbde       label38                    1006dbde f   LIBCMT:adj_fdiv.obj
 0001:0006cbf6       label39                    1006dbf6 f   LIBCMT:adj_fdiv.obj
 0001:0006cc0a       label40                    1006dc0a f   LIBCMT:adj_fdiv.obj
 0001:0006cc2a       label41                    1006dc2a f   LIBCMT:adj_fdiv.obj
 0001:0006cc2f       label42                    1006dc2f f   LIBCMT:adj_fdiv.obj
 0001:0006cc49       label43                    1006dc49 f   LIBCMT:adj_fdiv.obj
 0001:0006cc4e       label44                    1006dc4e f   LIBCMT:adj_fdiv.obj
 0001:0006cc6e       label45                    1006dc6e f   LIBCMT:adj_fdiv.obj
 0001:0006cc82       label46                    1006dc82 f   LIBCMT:adj_fdiv.obj
 0001:0006cc9a       label47                    1006dc9a f   LIBCMT:adj_fdiv.obj
 0001:0006ccae       label48                    1006dcae f   LIBCMT:adj_fdiv.obj
 0001:0006ccce       label49                    1006dcce f   LIBCMT:adj_fdiv.obj
 0001:0006ccd3       label50                    1006dcd3 f   LIBCMT:adj_fdiv.obj
 0001:0006cced       label51                    1006dced f   LIBCMT:adj_fdiv.obj
 0001:0006ccf2       label52                    1006dcf2 f   LIBCMT:adj_fdiv.obj
 0001:0006cd12       label53                    1006dd12 f   LIBCMT:adj_fdiv.obj
 0001:0006cd26       label54                    1006dd26 f   LIBCMT:adj_fdiv.obj
 0001:0006cd3e       label55                    1006dd3e f   LIBCMT:adj_fdiv.obj
 0001:0006cd52       label56                    1006dd52 f   LIBCMT:adj_fdiv.obj
 0001:0006cd72       label57                    1006dd72 f   LIBCMT:adj_fdiv.obj
 0001:0006cd77       label58                    1006dd77 f   LIBCMT:adj_fdiv.obj
 0001:0006cd91       label59                    1006dd91 f   LIBCMT:adj_fdiv.obj
 0001:0006cd96       label60                    1006dd96 f   LIBCMT:adj_fdiv.obj
 0001:0006cdb6       label61                    1006ddb6 f   LIBCMT:adj_fdiv.obj
 0001:0006cdca       label62                    1006ddca f   LIBCMT:adj_fdiv.obj
 0001:0006cde2       label63                    1006dde2 f   LIBCMT:adj_fdiv.obj
 0001:0006c2a0       __tzset_lk                 1006d2a0 f   LIBCMT:tzset.obj
 0001:0006c548       __isindst_lk               1006d548 f   LIBCMT:tzset.obj
 0001:0006c6f4       _cvtdate                   1006d6f4 f   LIBCMT:tzset.obj
 0001:0006aecc       __abstract_cw              1006becc f   LIBCMT:ieee87.obj
 0001:0006af5e       __hw_cw                    1006bf5e f   LIBCMT:ieee87.obj
 0001:0006aa0f       _parse_cmdline             1006ba0f f   LIBCMT:stdargv.obj
 0001:0006e1dd       _strncnt                   1006f1dd f   LIBCMT:a_cmp.obj
 0001:00069b21       fFEXP                      1006ab21 f   LIBCMT:87tran.obj
 0001:00069c61       _rtforexpinf               1006ac61 f   LIBCMT:87tran.obj
 0001:00068c6d       _write_char                10069c6d f   LIBCMT:output.obj
 0001:00068ca2       _write_multi_char          10069ca2 f   LIBCMT:output.obj
 0001:00068cd3       _write_string              10069cd3 f   LIBCMT:output.obj
 0001:00068d0b       _get_int_arg               10069d0b f   LIBCMT:output.obj
 0001:00068d18       _get_int64_arg             10069d18 f   LIBCMT:output.obj
 0001:00068d28       _get_short_arg             10069d28 f   LIBCMT:output.obj
 0001:0006825c       _gu_return                 1006925c f   LIBCMT:exsup.obj
 0001:00068264       __unwind_handler           10069264 f   LIBCMT:exsup.obj
 0001:0006820a       _xcptlookup                1006920a f   LIBCMT:winxfltr.obj
 0001:00067ffb       _doexit                    10068ffb f   LIBCMT:crt0dat.obj
 0001:000680b2       __initterm                 100690b2 f   LIBCMT:crt0dat.obj
 0001:000678d9       __cftoe2                   100688d9 f   LIBCMT:cvt.obj
 0001:000679f0       __cftof2                   100689f0 f   LIBCMT:cvt.obj
 0001:00067b7b       __shift                    10068b7b f   LIBCMT:cvt.obj
 0001:00066739       __threadstartex@4          10067739 f   LIBCMT:threadex.obj
 0001:00066357       __threadstart@4            10067357 f   LIBCMT:thread.obj
 0001:0006604c       _strtoxl                   1006704c f   LIBCMT:strtol.obj
 0001:00065a60       LeadUp1                    10066a60 f   LIBCMT:memmove.obj
 0001:00065a8c       LeadUp2                    10066a8c f   LIBCMT:memmove.obj
 0001:00065ab0       LeadUp3                    10066ab0 f   LIBCMT:memmove.obj
 0001:00065b2f       UnwindUp0                  10066b2f f   LIBCMT:memmove.obj
 0001:00065b1c       UnwindUp1                  10066b1c f   LIBCMT:memmove.obj
 0001:00065b14       UnwindUp2                  10066b14 f   LIBCMT:memmove.obj
 0001:00065b0c       UnwindUp3                  10066b0c f   LIBCMT:memmove.obj
 0001:00065b04       UnwindUp4                  10066b04 f   LIBCMT:memmove.obj
 0001:00065afc       UnwindUp5                  10066afc f   LIBCMT:memmove.obj
 0001:00065af4       UnwindUp6                  10066af4 f   LIBCMT:memmove.obj
 0001:00065aec       UnwindUp7                  10066aec f   LIBCMT:memmove.obj
 0001:00065b48       TrailUp0                   10066b48 f   LIBCMT:memmove.obj
 0001:00065b50       TrailUp1                   10066b50 f   LIBCMT:memmove.obj
 0001:00065b5c       TrailUp2                   10066b5c f   LIBCMT:memmove.obj
 0001:00065b70       TrailUp3                   10066b70 f   LIBCMT:memmove.obj
 0001:00065be8       LeadDown1                  10066be8 f   LIBCMT:memmove.obj
 0001:00065c08       LeadDown2                  10066c08 f   LIBCMT:memmove.obj
 0001:00065c30       LeadDown3                  10066c30 f   LIBCMT:memmove.obj
 0001:00065c84       UnwindDown7                10066c84 f   LIBCMT:memmove.obj
 0001:00065c8c       UnwindDown6                10066c8c f   LIBCMT:memmove.obj
 0001:00065c94       UnwindDown5                10066c94 f   LIBCMT:memmove.obj
 0001:00065c9c       UnwindDown4                10066c9c f   LIBCMT:memmove.obj
 0001:00065ca4       UnwindDown3                10066ca4 f   LIBCMT:memmove.obj
 0001:00065cac       UnwindDown2                10066cac f   LIBCMT:memmove.obj
 0001:00065cb4       UnwindDown1                10066cb4 f   LIBCMT:memmove.obj
 0001:00065cc7       UnwindDown0                10066cc7 f   LIBCMT:memmove.obj
 0001:00065ce0       TrailDown0                 10066ce0 f   LIBCMT:memmove.obj
 0001:00065ce8       TrailDown1                 10066ce8 f   LIBCMT:memmove.obj
 0001:00065cf8       TrailDown2                 10066cf8 f   LIBCMT:memmove.obj
 0001:00065d0c       TrailDown3                 10066d0c f   LIBCMT:memmove.obj

FIXUPS: 671ff 61 fffffbe7 41 37 1f 45 2a fffffea5 24 c fffffb7f 5 a d38
FIXUPS: 67723 b 48 24 29 e 11 d 7 fffffd91 ffffffdb fffffef1 1d fffffe79
FIXUPS: 672f7 46 b 4c 1c 28 e 11 d 16 fffffe68 22 21 fffffdaf bd 2b 1c
FIXUPS: 67d05 10 55 63 fffffcb1 14 1b 25 14 10 d 10 b 3d 3b 14 60 7 14
FIXUPS: 67c2c fffffcab 6 d 7 c ffffff4d 13 14 1d 6 9 fffffe3d d9e 2a 1c
FIXUPS: 684cd 15 fffffefe 24 26 12 b b fffffe02 f 9 f 11 9 1e a b 6c c
FIXUPS: 68352 18 fffffe7d 1f e 20 fffffbd6 15 b fffffece e0f 17 2b 16 13
FIXUPS: 68b8b b fffffbe0 ffffff96 fffffe67 38 9 14 a 5 5 5 29 5 5 5 d 47
FIXUPS: 6867d 14 11 44 9 fffffe5d ffffffd2 ffffff48 9 a77 e 11 7 fffffe06
FIXUPS: 68d3d d 20 d d 9 ffffff6d fffffec3 24 fffffba3 1b ae 1b 2a 28 12
FIXUPS: 68901 3e 76 1f f 55 18 2e b 2a 22 8e0 2f 25 fffffe4f fffffe7b d
FIXUPS: 68fc4 f 11 f a 6e 11 c 1b 9 fffffea7 6 9 2b 10 fffffdfa 19 1f 1b
FIXUPS: 68e3b 1f 16 3e e e e 82b 68 89 d 2e 25 d9 bf 3b 18 c 15 8 77 12
FIXUPS: 69b87 16 1c 27 17 1e 18 5e 32 37 fffff782 b 29 3b 1b fffffe97 d
FIXUPS: 6b21a 13 29 fffffdc4 5e 7 fffffead fffffc24 12 1d 5 55 3c 7 2f
FIXUPS: 6acfd 15 fffff615 109 f fffffae7 4f e 8 16 8 fffffe8b ffffff42
FIXUPS: 69ddc fffff836 3f 99 277d fffffdf9 23 44 13 fffffcaf 35 f 10 17
FIXUPS: 6b8cb 19 14 14 12 f e 9 17 fffffd61 e 86 156 fffffdc6 24 ffffff98
FIXUPS: 6b4cb 2a fffffdfe 7c b4 fffffd8d 1222 a c e 17 10 24 54 16 20 c
FIXUPS: 6c4f8 c fffffb23 d 10 59 5d fffffd94 17 20 fffffe4d 16 8a 15 13
FIXUPS: 6bdf4 14 d 11 12 16 ef8 e 8 d b 14 b 34 fffffeeb 10 fffffb8a 71
FIXUPS: 6c91e ec 4a 78 76 fffffbb9 fffffe9a 1b 20 ffffff9f 9 fffffc1e 17
FIXUPS: 6c209 f 151 12 16 c 1d 1171 9 9 a5 4f 2f 15 fffffb63 f 10 6c fffffe10
FIXUPS: 6d08c 12 5b e 23 1f 33 1f fffffe54 fffffe2f e 8 d b 55 b8 b 44
FIXUPS: 6cfc8 b 21a1 fffffdcf fffffe14 72 79 59 fffff973 ffffff93 16 fffffe63
FIXUPS: 6e65f 10 16 c ffffebed f d 18 20 11 110 15 6 7 17 6 e 22 2e 2b
FIXUPS: 6d4ff 1e 2535 fffffbbf 2b 1c 1b 1b 21 1c 1f 28 28 8 11 24 25 6c
FIXUPS: 6f818 12 fffff9ea 8 111 39 2f 5 f 14d 24 28 aa fffff9f3 17 10f
FIXUPS: 7010e 2b 1b fffffeae b 39 b 39 1b fffffd50 47 41 10c fffffbc5 1d
FIXUPS: 6fbb9 19 46 1d 26 9 d 9 fffffc82 14 18 18 96 6 a 6 1b 11f9 31 fffffeb0
FIXUPS: 70b05 a 23 ffffff2d fffffe90 10 5c 6a fffff9c7 110 ca 1a 22 107
FIXUPS: 70735 17 24 c fffff9e9 18 3c 32 10 24 1f 1b 16 12 fffffe63 e4c
FIXUPS: 70f3a ffffff18 6 8 1d 8 8 19 ffffff75 7 d ffffff5f b 45 c d fffffe5b
FIXUPS: 70c65 1a 6 1d 11 19 9 3b 9 a a 33 fffffe71 25 73a 10 12 fffffe00
FIXUPS: 71174 48 f 1f 12 10 12 fffffe5f 13 e 12 24 ffffff6b ffffff37 6
FIXUPS: 70f84 d b 14 17 9 c 1e 22 fffffecd 10 21 7 8b7 22 a 2d fffffb7b
FIXUPS: 713bf 11 11 11 3a 1e a 13 b 2a 1c f c 3f 19 a 5a 6c 6a 1d 3a 1c
FIXUPS: 71286 22 48 f 1f fff919aa 51 16 f7 48 27 78 38 6ed85 ffffff38 c
FIXUPS: 71c73 ffffff47 ffffff36 c 2f 6 17 d 14 ffffff08 c 46 fffffe1d e
FIXUPS: 71945 8b 5e f 13 fffffe3c 31 fff90127 68 65 29 d 20 cc 29 d 20
FIXUPS: 1cd1 6 111 9f 39 1e 1c0 32 8a 2a 59 a e 8f 16e 455 2b1 d1 13 26
FIXUPS: 2c22 9c e26 237 1b 10 fffff4c1 31 6d ffffde92 19 21 33 1a 98 1a6
FIXUPS: 145d 69 49 26 55 9e 9c 71 89 39 4b 1d 42 60 36 37 31 38 471e 11
FIXUPS: 6117 11 11 11 14 80 6c bc ffffcfe0 50 58 50 70 c 69 c1 1f 4c 23
FIXUPS: 3652 68 54 ee 86 90 94 5f 5f 14 1a 2107 8 8 8 1c 25 14 c c 10 4c
FIXUPS: 5cdc 7b 60 b 12 24 6e 1f 5c 47 30 30 30 30 30 30 30 28 1b 1e b
FIXUPS: 588a e 6 14 31 93 66 2d 7 15 27 10 11 17 17 34 6 1e 12 7 b a b
FIXUPS: 5b3b b 16 6 f 6 8 7 d fffff952 61 11 f 5d 1b 23 24 2b b e 8 16
FIXUPS: 568d 14 24 2b c 1f 6 2c 59 d f 5d 1d 7 b e 8 6 1a fffff3ef 34 7
FIXUPS: 4cf9 9c 3b 39 5c 3b d 2f 138 16 24 7 e 2e 34 34 2e 80 156 e db
FIXUPS: 53f9 4f 11 d 11 14 21 c fffff394 30 1b 3d 1e d 23 c c 13 f b c
FIXUPS: 4985 16 16 23 12 91 7e f 16 16 16 16 16 1e 10 2e 3d 16 3d fffff92b
FIXUPS: 459d 29 23 1f 38 6 13 f 12 12 12 12 12 12 12 12 12 12 12 12 12
FIXUPS: 4764 12 13 13 13 13 16 19 1c c fffff88e 48 36 11 11 6d f 36 11
FIXUPS: 421b 66 3d 5 37 c c 3c 27 14 1d 1a 20 28 4b 11 25 17 2a 2d 21 44
FIXUPS: 456c 2f3a 27 17 f 31 b 22 12 b 18 15 22 44 12 8 e 1a 18 1e 8d 17
FIXUPS: 3dfd 48 2e 30 10 1e 34 10 1e 5f 105 2e5f 40 26 16 10 20 38 b 62
FIXUPS: 7120 32 47 63 2a 14 5d 1a 38 20 14 41 1e 1a 15 2d 34 e 13 2e a
FIXUPS: 747d 1a fffff4d1 44 29 33 21 16 71 28 27 47 28 24 18 50 56 23 2c
FIXUPS: 6cd0 1f 7 7f 28 32 45 e 1d 10 13 d 6 22 51 fffff588 65 19 16 23
FIXUPS: 6530 22 f 10 1f 13 1a 6 27 36 10 7 4d 11 20 24 29 42 11 3f 1e 1a
FIXUPS: 67db 15 50 31 32 eb9 3b 22 e 10 6d 15 24 9 15 12 e b 25 9 8 25
FIXUPS: 792e 43 29 47 ffffe960 a 17 a 2a 2b e 2a 18 38 11 1d5b 9 6 16 d9
FIXUPS: 82d2 12 15 61 7a a 3b 11 14 f 23 50 64 5e 1c 29 7b 6f 1d 58 12
FIXUPS: 8752 a 32 28 ffffef83 19 56e 18 d 94 22 21 2c 4c 2b b 31 c 14 b
FIXUPS: 7eef b 1c b 4d 50 52 11 21 23 21 8d 1c 12 10 16 6 8 104e 24 1a
FIXUPS: 9223 1f 33 28 1d 2d 49 11 a 2a 37 ffffe6ab 87 20 d 42 1a 4e 16
FIXUPS: 7bf0 f 24 16 16 16 16 17 6 1d ee8 33 7a 11 85 1f 28 23 68 11 38
FIXUPS: 8e35 11 53 11 27 26 11 31 11 27 11 23 6 14 51 d5 1d 10 14 55 18
FIXUPS: 88b9 4c 25 d 1f d 27 2c 1b c e e 15 10 11 e 6 15 10 e 9 2a 16 2c
FIXUPS: 8b05 13 20 9 c 9 c a baa 10 1d 7 1c f 39 30 1e f 9 7ac 19 5f 9d
FIXUPS: a125 9 1d 6 1a 14 14 31 a 14 1d a 9 6 ffffe5d2 49 44 29a7 28 26
FIXUPS: b272 ffffe175 6 16 14 37 36 11 a 17 c d 6b 22 21 7 14 14 b 18 6
FIXUPS: 9610 2f 13 3b 2f 20 10 1d 15b6 a 31 c 15 a 14 a 1b 66 17 3f 16
FIXUPS: ae85 27 94 10 3c c 29 c 3f 69 c 4f 10 3c c 29 c 3f 6a fffff627
FIXUPS: a845 11 11 23 bf 30 1d 11 10 12 18 1d 5a 19 49 19 51 19 69 13 7
FIXUPS: abc6 2f 27 19 c 8 f a 27 17 fffff824 13 3b 13 1b 3d 42 29 1b 12
FIXUPS: a623 10 25 22 26 7 b 1b d d d 10 28 2f 2a 1c b 6 6 6 31 1c 3610
FIXUPS: de34 15 39 31 26 d 1d 82 26 46 83 28 14 24 1f ffffd2a1 31 2f 40
FIXUPS: b474 30 ffffeda1 27 33 25 7 7 3a 2d 1d 41 3471 3e 6a 42 34 20 22
FIXUPS: d9b9 18 5b 46 1b 40 8 1e b 17 f 28 1e 1d 54 a8 20 27 8 60 3e 12
FIXUPS: ddbd 2c 25 fffff496 2b 16 1e 18 10 6 10 5e 11 35 2d 23 24 23 75
FIXUPS: d515 8 51 4a 19 20 14 bd 23 20 2d 15 1c 14 38 1b fffff6a9 11 16
FIXUPS: ceb6 b 5e 28 23 1b 1c 1b 43 15 9 41 1e 1c 15 14 28 1b f 1c 18 7a
FIXUPS: d1ec 16 1e 15 6 d 1b fffff82b b 7 3c c 13 3c 1b 27 1f 12 2d 16
FIXUPS: cbf9 6 1c 11 67 30 55 13 a 1d 22 21 32 b 15 14 14 1b d fffff8c9
FIXUPS: c70d b 1e c 26 19 1b a 3c e 12 48 43 13 14 20 e 13 16 1b 1a 1e
FIXUPS: c96b 17 1a 11 12 d b 8a 17 fffff621 11 69 2b 35 21 1a 52 c 46 a5
FIXUPS: c33d 1e 49 67 23 65 2a 94 64 10 1a 4b 13 18 1a 18 19 d 14 1a 18
FIXUPS: ba15 53 26 aa 5f 47 15 71 1c 18 2e 20 4d 29 1e 2d 18 28 1e 22 5b
FIXUPS: beb4 36 d 25 2c 2a 45 25 32 1f 25 2b81 6 d 6 1e 28 7 ffffc897 13
FIXUPS: b4e9 9 11e 2f 45 43 7e 2e 17 52 21 a 1d 4f 1b d 4c b 15 24 e 89
FIXUPS: b9e7 2f7f 24 11 1a 12 6 2a 6 11 11 11 b 6 4b 6 b 16 1a 12 1a 12
FIXUPS: eb26 7 b f e 1a f 20 6 1c 6 fffffa78 f f f f f f f f f 46 a6 a
FIXUPS: e7c6 19 11 16 11 11 46 12 12 11 11 11 19 1a 12 1a 12 1e 7 125c
FIXUPS: fbdc 26 25 29 1a 1d 14 13 15 11 12 b 1a f 35 10 12 26 1e 15 1c
FIXUPS: fe14 34 1a 28 14 ffffe72e 3a f b f 1091 22 1e 12 46 11 41 15 2e
FIXUPS: f800 42 e e 16 30 56 43 72 26 c 5a b 42 24 1a 2f c d 6 2f 41 e
FIXUPS: f23c 21 13 a 42 12 17 14 10 15 13 13 10 2c 17 66 17 18 e 10 43
FIXUPS: f4ba 35 2b 45 50 14 19 18 19 46 23 fffff8f0 c 1a e 32 1d f c 14
FIXUPS: f024 22 19 e 1b 8 17 10 6 e f d 64 27 16 10 f 13 d 19 12 31 9 daa
FIXUPS: ffe5 33 1e 1d e 1b ffffec01 21 1b f 16 d 8 d 15 b 8 31 8 29 8 e
FIXUPS: ee5f 1b 1d 26 2c 9 1b 17 14 15ae b 2e f 2f 2b 33 35 9 1b 17 c c
FIXUPS: 1064f 14 15 e 12 1f fffff821 14 1c e 21 28 6 14 e 17 c c 13 129
FIXUPS: 10115 17 f 1d 9 c 1a 17 9 25 9 c 1b 1e 6 10 e 40 75 25 33 83 13
FIXUPS: 1041d 17 12 b 19 14 40 e 28b8 c 6 10 10 6 6 82 1b 7 6 10 b6 2b
FIXUPS: 12f73 3e 11 22 3d 1d 59 12 a 47 7f 18 3e 18 36 ffffce8e 1d d 279c
FIXUPS: 12898 94 2f 4f 56 65 52 25 32 5b 14 d d a e e 31 a e 2e 41 1d 22
FIXUPS: 12cc4 3e 9 7 1f e c 17 fffff737 18 18 19 b 2f 11 1c 1b e 12 2a
FIXUPS: 125cb 11 16 18 24 42 10 e 20 38 49 28 e 31 11 34 28 13 12 21 fffff68b
FIXUPS: 11f16 1a 1c 26 2b 1e 1d 57 c 42 2a 2d 35 16 13 8 3e 40 13e 59 a
FIXUPS: 12364 11 48 1a 24 1b 25 18 34 c fffff2a2 26 20 2e 33 177 b 6d 1a
FIXUPS: 11a04 1d 94 9a 30 77 30 30 26 10 49 c a 11 7d 18 31 31 56 18 23
FIXUPS: 11e9c 20 fffff0dd b 52 2a 33 61 34 10 48 14 19 6f 15 24 80 2c 1b
FIXUPS: 112f4 13 5f 3e 12 9 1b 9 14 9 298 18 18 18 2c fffff419 2d e 1d
FIXUPS: 10b8a e 19 31 f5 a 14 d 11 d d 2d 1c 15 15 15 15 5b 18 33 20 31
FIXUPS: 10ee1 15 15 22 36 1b 28f4 27 17 d5 29 26 ffffcd22 18 2b 42 15 b
FIXUPS: 107c6 1f 34 1b 67 16 2c a 1a 6c 42 b 53 18 37 1f 40 1c 13 17 27d3
FIXUPS: 13324 d 6 1a 78 3c e 32 d 32 31 d 32 57 1f 1c 19 25 47 19 47 19
FIXUPS: 136c8 19 27 1d 1c 35 34 2a 85 3cd 10 20 25 1b 59 11 8 68 b6 30
FIXUPS: 13ecd 118 4c 30 26 17 45 5f 18 c9 48 d 8 32 15 16 35 15 16 42 ffffef25
FIXUPS: 149dd 18 28 fc fffffadc 11 3e 44 69 2c f a 7b fffffc53 c e 12 14
FIXUPS: 1448e 3d 13 14 2a 2a 23 29 fffff466 1a0 d f 55 d 107e c 15 26 3a
FIXUPS: 14d22 16 1c 11 12 30 d 39 25 5f 20 1d 13 36 fffff914 3a 20 25 d
FIXUPS: 148c6 e 27 c 2d 1c f 4a 807 28 57 28 11 7b 20 20 32 d 15 e 28 1e
FIXUPS: 153e2 22 fffffb31 d 14 15 15 27 b fffffbc2 41 b b 2a 9 b 2c 1c
FIXUPS: 15847 40 22 29 1f 22 e 1b 2f 1b 14 1b 71 e 16 17 e 3b fffff538
FIXUPS: 15008 14 1f 35 25 4e e 11 15 e 23 28 1e 1469 22 4b 25 4d 1c 36
FIXUPS: 1673f 26 2f 2f ffffec62 f f 11 53 3a a 10 43 ab 20 10 13 1e 21
FIXUPS: 15672 2d 6 30 d3 3e 9b0 37 24 2b 1c 21 1d 24 17 1a 1b 16 17 1b
FIXUPS: 16357 23 20 41 49 30 1c 1f 28 28 19 1b 21 15 e 2b 37 16 fffff6df
FIXUPS: 15cd6 2f 2f 6d 25 d 2c 18 5f d 2c 18 5f d 2c 18 69 30 23 54 21
FIXUPS: 160c6 e 19 15 19 f 15 e 1b 1f 26c0 f 24 10 d b 15 20 23 25 3b 19
FIXUPS: 18979 32 6 4d 8 5d e 16 ffffd0a8 49 39 2d 18 1b 1f 1d 21 16 10
FIXUPS: 15ca0 2837 7 20 10 b 7 2c 17 2f 2e 16 1c 10 1a b 1d 4a 6 2f c c
FIXUPS: 186e7 c 5f c 47 a a 7 a 27 4e fffff27e d 24 292 25 87 95 3d a f3
FIXUPS: 1800d 56 7b 35 40 9b 1c 1d 22 34 50 69 13 29 83 2f 10 c 7 53 e
FIXUPS: 184bc fffff04f 39 ce 55 70 d 12 10 13 10 10 2d 72 4f 21 22 22 21
FIXUPS: 178cf 22 c8 5d 15 6 16 6 e b 2c 8 b e 2c5d e 29 23 1f 37 2e 14
FIXUPS: 1a81e 3e 23 9 64 41 48 ffffbe86 80 ef 63d 48 3d 5d 16 e 7e 80 52
FIXUPS: 17300 40 4e c6 80 2c4e 54 26 73 52 6 1f 25 3e 40 56 6e 53 f 40
FIXUPS: 1a49c 49 36 16 16 38 6 e 17 15 35 6d b 28 21 e 21 fffff669 30 9
FIXUPS: 19dbb 3b 6e 8 e 2c c 6 17 6 33 8 7 7 27 8 6 e 13 5a 32 18 13 17
FIXUPS: 1a085 16 e 1f e fffff69e 6a 41 16 84 16 d 36 c7 4a 18 32 16 11
FIXUPS: 19aab 47 38 3f 50 32 d 1f 1d 25 8 14 9 27 2c 27 35 13 fffff5eb
FIXUPS: 19338 f 1c 31 5d 25 e 17 e 2c b 2b 9d d 6 2d 28 1c f 37 7 e 8 7
FIXUPS: 1963d e c a 26 37 37 fffff86f 26 1a 9 13 1b e 15 12 37 23 3c 26
FIXUPS: 190db d 10 1e 3d 2f 17 11 37 12 47 26 30 d 6 24 22 27 a 38d1 43
FIXUPS: 1cc60 24 3e ffffbe19 1a 1a e 74 6b 1f a 1e 34 1f a 1e 4a 1f a 26
FIXUPS: 18d76 45 1f 2f 56 1f 2e 2d 38 16 3503 20 e 3e e 50 251 19 10 1d
FIXUPS: 1c79b 1d 10 1d 10 1d 16 19 119 17 3a 17 46 1d 5d 39 22 34 26 30
FIXUPS: 1cb92 35 fffff365 24 18 b a 2a e 2d d 1f d 24 18 2c 18 13 26 25
FIXUPS: 1c19d 1d a8 36 27 11 1d 14 1d 34 14 28 1d 13 fffff58e f 11 3c de
FIXUPS: 1bb69 95 4d e 48 37 d 19 1f 33 c 39 1b 13 14 51 13 10 16 c 11 23
FIXUPS: 1beb9 16 14 e 31 fffff609 14 4c 29 13 9 11 37 16 1b 10 14 a d 3e
FIXUPS: 1b6d7 a 10 1d 15 14 45 11 1c 7c 25 42 b 5c 11 15 11 fffff572 13
FIXUPS: 1aec4 14 a 6 b 6 9 1f 7 2e 18 11 9 a4 3c 2a a a 1a 1c 1c 1e ba
FIXUPS: 1b264 15 10 a 1f8 5f 3b fffff5e0 17 2a 8 11 1c 10 f a 4a 2a 2d
FIXUPS: 1ac56 8 1b 11 1c 10 1a d d 11 14 16 12 e 38 1d 1e 28 1b 80 2720
FIXUPS: 1d5d7 1d 1b 12 f c c c 9 28 12 19 10 23 10 16 47 1d 1d 1d 20 1d
FIXUPS: 1d803 5f 62 ffffd146 4e 13 1e 56 15 25bb a2 17 1f 33 e 1c 36 38
FIXUPS: 1d27c e 11 15 4c 17 1e 1a 1e 1c a1 16 f 1f 2a 94 15 10 12 f 9 6
FIXUPS: 1d58c 81e 3f 28 29 1c 1c 1f a c 9 a 2a 2a ffffede7 b f 26 43 49
FIXUPS: 1cdec 2f e 152 15 13 1d 3f 15 13 d 1a 46 9a5 11 1f e 10 f 11 17
FIXUPS: 1dad1 9 d a e 28 14 17 37 e 57 f 68 a 12 10 40 11 9 1d 5a d e 1f
FIXUPS: 1df93 12 26 14 22 d 58 43 15 26 1f 16 10 21 1d 11 d 1b 18 33 1e
FIXUPS: 1e226 e fffff6b5 29 1f 22 e 18 30 15 18 18a2 b 1e d 10 10 10 10
FIXUPS: 1f2fe 10 10 10 10 10 10 10 10 9 a 3c ffffee97 1d 34 1c b 2e 12
FIXUPS: 1e337 9 fffffbf6 16 15 f76 15 b 1e d 10 10 10 10 10 10 10 10 9
FIXUPS: 1efb5 44 4e 34 56 16 23 15 41 38 13 6 1f 18 36 26 11 14 fffff7ba
FIXUPS: 1ea73 9b a b 9 4e 11 31 a b a 1b 33 4e 34 33 3e 16 23 15 41 38
FIXUPS: 1edf6 6 1f 18 36 11 2b 11 14 fffff5fe 19 1a 2b 5a 2c 40 2a 22 a0
FIXUPS: 1e6e2 10 15 21 32 2c 17 6d 13 c c c c c c c c 1a 56 46 50 50 1e64
FIXUPS: 20858 c a 39 6 17 3c 2a 19 21 28 23 2e 1a 6 15 17 22 2f 18 1a 15
FIXUPS: 20ae2 c a 39 6 17 ffffd914 14 38 1fa1 2e 1a 13 15 41 2a 19 21 25
FIXUPS: 205a5 24 1e 1a 13 15 37 2a 19 21 25 19 24 1e 1a 6 15 17 22 3e 18
FIXUPS: 20822 fffff745 22 4e 1c 8 70 f 1f 32 1a 13 34 14 1e 2b 61 14 3f
FIXUPS: 20245 36 2b 8 c 31 24 4b 17 2f 2a 19 21 28 fffff6c5 7 c 25 20 e
FIXUPS: 1fb5e 5d 7 37 17 e 2a a c 15 d 42 15 11 2b 30 7 56 f 56 66 a 3c
FIXUPS: 1fec1 7a 22 fffff843 22 20 6 15 17 35 26 2e c 2f 13 38 d f c 31
FIXUPS: 1f98f 1f c e 39 6 1c 26 43 e 1d b a 7 10 5159 26 11 6 e e1 22 15
FIXUPS: 24ddd 62 a 7 6 11 c 1e ffffa5b2 92 57 2f 31 59 20 1e 2f 19 37 19
FIXUPS: 1f706 18 22 14 50f1 19 39 6 10 13 6 c 6 18 18 8 6 40 6 6 47 f 13
FIXUPS: 249de 13 19 19 8 6 3b 32 a6 60 1b 1d 10 fffff862 1b 2d 14 31 17
FIXUPS: 24523 17 31 17 6 12 10 21 17 23 1a 13 b 1a 12 d e 8 56 e e d5 19
FIXUPS: 24824 a f fffff930 e 8 2b 17 2c 14 e e 15 e b b b b 43 1c b 10
FIXUPS: 242fa 24 10 10 2f 10 10 10 28 10 17 2d b fffffa0e 1a 22 10 10 43
FIXUPS: 23ee1 e 10 22 10 10 31 10 10 10 22 10 10 59 10 10 18 d 2a e e 13
FIXUPS: 2410a 10 10 35 fffff909 10 22 10 18 48 10 10 10 2f 10 10 33 10
FIXUPS: 23bdc 10 22 10 10 73 4c 6 26 8 28 d 10 42 b 1a 31 1a fffff82c 1f
FIXUPS: 23685 10 1f 74 17 3d 46 2e 38 1a d 1f 10 10 31 10 10 24 22 10 10
FIXUPS: 239a0 10 10 27 10 10 10 31 10 fffff730 e 37 e 7 24 f 3d 16 b 35
FIXUPS: 232d1 46 28 22 26 7c 5f 20 18 19 17 98 10 b 10 27 10 10 10 31 1f
FIXUPS: 22df2 39 24 36 4e 12 7 21 e 39 18 33 6 2d c 1c 6 14 20 c 2d 12
FIXUPS: 2308f e 16 16 c 16 12 12 e a fffff740 20 17 17 3a 9 1b 45 c 14
FIXUPS: 2298c 3f 23 1a 2b 3b 31 91 a3 47 26 2c 10 5e 10 2f 40 14 2c 10
FIXUPS: 22db1 14 fffff70f 11 16 17 23 16 17 23 14 41 c 34 18 6 f 14 13
FIXUPS: 2267c 26 e 25 1a 10 15 14 28 33 20 1b 22 37 23 fffff9b6 14 20 14
FIXUPS: 22258 14 1d 14 20 14 20 14 20 16 1e 18 16 17 11 16 17 11 16 17
FIXUPS: 2242b 16 17 11 16 17 11 16 fffff9f8 f 13 20 1b b 14 16 16 19 1b
FIXUPS: 21f9c 16 30 f 14 20 14 20 14 2c 14 29 14 8 3d 1f 14 29 14 1d 14
FIXUPS: 21ab3 5a b 16 52 b 16 80 16 14 1d 14 20 14 20 14 1d 14 20 16 1e
FIXUPS: 21d81 22 21 22 35 b f 1f 16 14 24 fffff907 14 16 8 6b 1c 16 8 66
FIXUPS: 218f8 b 12 10 30 6 19 12 b d 10 30 1c 6 19 12 b d d 1c 6 19 12
FIXUPS: 21381 23 24 f 11 10 27 17 1d 17 69 1c 18 13 10 10 17 1a c d 15
FIXUPS: 215b1 16 54 4d 1a 35 51 16 8 56 d fffff718 1a 79 10 b 46 2d 7 9
FIXUPS: 21000 13 8f 24 11 24 10 1c 18 22 14 3a 3d 17 2e 2e 10 e 73 1f 3a
FIXUPS: 21355 15 46f2 5d 10 1d 29 2b 11 2f 18 25 11 20 32 21 10 15 27 13
FIXUPS: 25ca4 3c 21 57 ffffae2f 1f 5f c 2e 10f c4 10 2f 1a 4764 28 11 1f
FIXUPS: 25647 1b 39 af 41 f 4f 1b 18 15 38 1b 18 12 3b 1b 18 12 3b 1b 35
FIXUPS: 259d9 14 e 7 1d a 22 fffff613 1a 24 b8 53 5f 32 1e b 25 b 22 1f
FIXUPS: 25315 33 21 40 18 15 33 16 3a 17 39 20 34 24 8 34 24 8 30 b3ce
FIXUPS: 3098d f 7 6 3c 14 1c 15 2f 2e 6 1c 36 6 38 15 10 6 11 6 54 11 b
FIXUPS: 30bd5 3c 6 c 6 ffff434f 25 98 b599 d 6 27 32 7 3a 4f 15 1c 17 4b
FIXUPS: 30770 c b 2b 49 f 9 a c 2d c f 17 a 54 5b 15 10 7 12 fffff90a 3c
FIXUPS: 3032e 10 6 10 a 6 41 1d 1e 14 14 9 14 16 23 1b b 14 6 9 10 1a 8
FIXUPS: 30500 23 1c 21 6 32 30 fffff92f 11 a 21 13 1f 1a d 54 16 10 7 c
FIXUPS: 30061 33 1e d e 14 2b 7 e 39 1d 22 a2 8 a 6 10 14 c fffff8e1 21
FIXUPS: 2fb92 2d 16 9 21 b 37 10 6b 49 37 10 7 21 b 3b 2b c 2c 2c 36 7
FIXUPS: 2fe95 6 19 11 6 e a e fffff819 30 2f 39 1f c 21 39 7 20 19 14 f
FIXUPS: 2f896 33 6 17 44 a 11 14 54 e 2c 21 12 5c 6e 9 b 1b 30 fffff8ef
FIXUPS: 2f43f a 21 2a 1d 1b 28 15 7 6 1d 13 f 11 2d d a 22 2b 1e 1c 15
FIXUPS: 2f64f 15 f c f 24 16 2b d fffffad3 e 8 8 2e d a 20 d a 12 23 d
FIXUPS: 2f2b9 11 d a 17 d a 18 f 40 d a 1e 13 13 d a 18 f fffffa16 e 17
FIXUPS: 2eeba 6 10 a d 11 25 19 35 5f 86 11 a 17 11 a 17 19 17 15 8 13
FIXUPS: 2f149 1b 16 e 16 13 8 fffff9e4 a 13 e a 10 6 23 10 e 17 12 6 10
FIXUPS: 2ec7a 9 a 6 1c 1b 2e 38 f 6 48 1c 7 9 f a 9 c fffff9a0 1d 7 21
FIXUPS: 2e800 20 d a 9 19 1a 13 35 16 7 18 10 b 3b d a 18 13 d a 18 f 49
FIXUPS: 2ea51 9 111 26 fffff8dd 19 c e 3b 18 7 1d 15 c 33 17 7 39 8 d 12
FIXUPS: 2e616 17 7 26 7 21 31 16 a c 9 12 37 38 17 fffff97f 1c 1c 9e f
FIXUPS: 2e1eb 18 37 9 b 7 18 3f 20 7 1d 15 c 12 39 13 1f 18 13 b 6 13 13
FIXUPS: 2e400 d 3f 1b fffff91c 16 15 b 6 a 16 c a c a 37 22 8 f c 56 1b
FIXUPS: 2df2a 30 39 e 2b 2f 12 1d 14 22 19 36 1c 18 fffff9f5 e e f e a
FIXUPS: 2db36 8 14 12 f 26 8 14 1b 12 12 8 14 21 8 14 1c 31 25 8 14 f 31
FIXUPS: 2dd2e d 3e fffff9e8 1c 15 1b 15 a 27 a 26 a 5d 1c 33 38 14 25 7
FIXUPS: 2d974 b 12 17 16 b 1d 17 2a 24 2c a 2e 13 a fffff80b 13 17 2c a
FIXUPS: 2d341 2d 19 11 2e 11 20 30 20 53 22 96 1b 1b f 1a 2f 27 1d e f
FIXUPS: 2d650 67 11 50 11 13 fffff8c1 41 1d d e 10 f 2b 11 d a 17 53 c
FIXUPS: 2d181 1e 1f d a 11 7 e 29 a a 15 f f f 2b a a fffffa3a 13 5a 9
FIXUPS: 2cd74 7 36 24 d a 25 1c 19 f c f 9 11 f d 15 12 31 22 23 d a 1d
FIXUPS: 2cf92 18 11 a fffff975 e 19 6 13 47 1f 22 13 33 2c b 29 c d 11
FIXUPS: 2cae5 14 2b 42 6b 16 1e 29 25 1f c d 11 f 1a 28 fffff90c 6 47 13
FIXUPS: 2c66a 11 11 38 11 11 11 11 11 1b 12 16 21 39 11 35 f 1e 2d 1a 28
FIXUPS: 2c8a7 6 16 13 6 41 e fffffa43 3e 11 d d 11 f 11 11 e c 6 c 15 18
FIXUPS: 2c478 14 7 27 9 14 38 b 18 27 14 b 6 18 9 14 30 fffff8ba 16 14
FIXUPS: 2bed7 10 13 1b 36 18 13 6a c 17 45 17 6c c 17 4e 3e 22 35 6c 11
FIXUPS: 2c265 37 54 b 6 30 1d 12 fffff750 1e 3d 38 27 15 19 a 19 f c 12
FIXUPS: 2bc09 16 34 22 12 32 d a 20 1e 3d 38 27 28 19 f c 12 21 16 fffff8f3
FIXUPS: 2b750 17 d 13 a 32 22 10 39 d a 20 1e 1b 3e 25 19 1b f 1e f 1a
FIXUPS: 2b99d 21 1a 3b 22 12 32 d a fffff9e4 18 16 1f d 13 a 18 a e 15
FIXUPS: 2b575 d a 24 1f 28 12 18 20 c e e e 26 f 8 10 a 24 10 24 fffffadb
FIXUPS: 2b21f 7 d a 6 1c 3f e e 13 e e e e 8 a b 20 f 14 14 14 14 10 18
FIXUPS: 2b3ef 1a 13 1a b a fffff8c0 bb 42 21 63 c 17 7 42 8b 7 d 16 14
FIXUPS: 2afcf e 2b 17 67 74 e 12 16 1d a 1a 3c c a f 13 6 fffff765 7 11
FIXUPS: 2a97b 2a 28 1c a b a e c a f d 17 48 28 21 48 1a 57 1e e e e 56
FIXUPS: 2ac5b 4d d e 3a fffff906 18 15 6 8 11 1f c e 11 6 40 b 6 13 18
FIXUPS: 2a721 25 d 7 6 4d 28 a a 29 57 13 49 22 e 43 fffff93d 58 13 49
FIXUPS: 2a34b e 30 8 b a e 10 f d 17 8b 1d 1f 2c 6 1b 1d d 1b 6 1b f 22
FIXUPS: 2a5ac e 15 6 fffff9c7 e 3a c 17 12 12 c 27 a 12 13 c 23 7 12 1d
FIXUPS: 2a0f9 c 19 56 a a 19 19 12 8 35 a a 26 d fffffa3d 10 21 f 19 9
FIXUPS: 29cfd 1a 33 9 e 17 24 8 8 b f 2d f 28 19 67 26 e a a 1d d 2a 1b
FIXUPS: 29f80 11 fffff955 a a 23 1b 19 a 2c f c 2a 21 11 60 17 9 10 53
FIXUPS: 29b03 d a 25 39 1b e 1e f 17 19 14 3d 2c fffff8ef 2c 20 a a 23
FIXUPS: 29608 19 a 23 f c 2a 21 11 3a d a 24 28 15 23 34 16 f 11 27 1b
FIXUPS: 29856 27 21 28 fffffa0b a a 12 f 2f a a 18 13 f f c 30 d a 8 16
FIXUPS: 2940a 22 10 21 f d a 10 26 d a 22 38 22 fffffb47 1f 7 12 7 1e 11
FIXUPS: 29110 9 14 12 b c 12 f 11 46 1a a a 1d a a 14 b 1f 1c a a e a a
FIXUPS: 28ccc 22 16 10 49 1c 12 1f c 18 23 e 24 d a 24 25 14 47 13 c 59
FIXUPS: 28f7f 35 d a 15 e 32 d a 1f fffff98f a a 1a 15 e 1f 11 25 a a 1b
FIXUPS: 28ad0 9 1f 11 24 18 17 11 20 17 11 23 a a 21 18 9 41 9 4b fffffa83
FIXUPS: 2875f 2a a a 1f 24 1b 1f 1a a f 10 6 14 2f a a 1c 21 15 19 11 8
FIXUPS: 2894a 6 f 10 6 1e 15 15 fffffaee 11 21 f d 10 6 16 11 19 2a a a
FIXUPS: 285ac 24 1b 1b 13 f 15 12 27 14 18 1a 11 8 f 16 12 6 1f fffffa93
FIXUPS: 281e7 a a 1d 22 16 1d 14 1f 10 f 10 6 c 15 33 a a 1f 24 18 1f 13
FIXUPS: 283d9 15 12 27 14 1e 24 14 fffffa8d 17 14 19 25 a a 1d 22 16 1d
FIXUPS: 2801c d 1a 8 18 1e 10 6 16 11 19 2f a a 1c 21 15 17 11 f d fffffaa3
FIXUPS: 27c73 25 10 1c 33 a a 1d 22 16 1a 15 8 f d f 6 1f 15 19 24 a a
FIXUPS: 27e6c 24 18 1f b 15 12 16 fffff9ba 16 f 2e 15 18 f 22 12 20 17
FIXUPS: 279d5 f 2e 11 19 c 27 3f 1b 6 20 11 47 17 12 f 2e 11 3a 17 1f fffff9f1
FIXUPS: 27655 a a 19 b 12 7 11 1f a a 1c 21 15 19 d 8 f 10 6 1e 15 15 28
FIXUPS: 27809 a 26 27 1b 27 10 fffff86c 58 c 24 27 6 20 a 2a 45 43 17 40
FIXUPS: 273ba 55 5d 27 a 30 2a 28 21 11 24 d a 1f f e 2c a a fffff7f4 3e
FIXUPS: 26e5f 3a 34 e c b a f 34 d a 23 d 7 12 23 d 7 11 d 7 17 d 7 18
FIXUPS: 2704d 47 45 13 d fffff82f 10 13 3f 26 21 24 38 58 1e d d e 76 13
FIXUPS: 26ba0 e 22 e 2c e 17 37 11 e7 2e f 7 12 f e 20 fffff78c a 12 15
FIXUPS: 265c3 65 2f 25 b d 1b d 40 16 11 1d 11 d f 11 4f 4d 26 25 d a 1b
FIXUPS: 268a2 e 3f d a fffff922 11 21 41 21 f 11 11 18 f b 10 e 34 f 10
FIXUPS: 263a4 11 17 18 4c 4c 12 11 15 d 29 c 4e 19 e 8 fffff901 23 18 22
FIXUPS: 25edf f 11 11 24 17 f 20 e 7 f 11 11 34 1a 3d e 49 69 11 45 e 27
FIXUPS: 2619f 37 15 19 13 b307 22 19 f 12 f 11 3e f 16 19 c 7 18 b e 1d
FIXUPS: 316b8 1e 1e 1d 4e fffff4fb c 14 c 6 6 ffff514a 30 f 11 b35c 17
FIXUPS: 311ae f 15 1d 2f e e c 33 2b 2a c 24 b 10 d 16 f 40 17 a 58 1e
FIXUPS: 31433 18 2c 10 46 13 23 fffff925 14 3a 14 15 2a 14 2a 1f a f 38
FIXUPS: 30f97 f 6 1a 1e 12 6 1f 6 a e 14 2b 22 5a 2d 2d f 9 f 63d e 28
FIXUPS: 3180f 29 c 44 2b 31 51 122 29 12 18 b 2f 34 2c fffff177 a 2c 29
FIXUPS: 30d51 1e 1b 22 15 11 13 12 f 11 1661 1b 6 a 48 9 fffff6b4 14 1c
FIXUPS: 31beb 14 1e 6 a a c 7 c d e 11 1b 33 1e 1d e 2c d 15 d fffffa1f
FIXUPS: 3179b 7fc 1c d d 9 13 10 db 31 20 d 19 7 7 9 e 25 d 58 3d f 54
FIXUPS: 322c8 10 30 10 6a 21 16 3f 28 38 1368 5a 6 20 10 10 20 16 18 2f
FIXUPS: 338ef a 11 17 46 26 2a 33 35 ffffe38d 5d 73 d 1e 13 24 1a 27 20
FIXUPS: 31f4b 20 c 1485 11 1c 20 16 e 11 31 29 12 b 1e 12 b e 3d 40 31
FIXUPS: 33602 1f 16 24 27 37 14 16 15 17 3d 23 39 c fffff983 3b c c 17
FIXUPS: 331e6 10 10 16 18 30 c c 16 1a 12 a 12 1e 6 15 11 6 6 11 2b 28
FIXUPS: 333a0 c 2e 8 14 fffff852 2e 19 1d 19 19 1d 43 1a 1c 80 2c 49 32
FIXUPS: 32ec1 24 15 18 1c 20 20 39 16 17 27 44 18 16 19 14 25 54 fffff67b
FIXUPS: 327a1 5f 18 3b 24 2a 34 32 2c 14 41 22 3f 18 21 35 3a 14 33 d 2e
FIXUPS: 32b27 33 2c 12 1d d 40 a b 14 11b8 18 2e 2d 13 1e a c 9 a a 3a
FIXUPS: 33f1f ffffe5fc 44 21 e 2b 17 e e 2a 1a 19 20 4e 1a 23 13 21 2c
FIXUPS: 32767 1f48 12d fffff291 22 1e e f f e 1a f f 1d 10 1f 2b 25 e f
FIXUPS: 33c18 15 11 e 17 26 1a 53 5b 24 d e 24 ce4 e 5f 63 fffff3e3 25
FIXUPS: 33f90 46 52 19 4a 20 65 3b 9c 53 33 1c 16 72 15 44 15 12 18 41
FIXUPS: 34413 54 34 30 19 f4 75e 10 d 1f 72 3b 85 24 4c 1b 16 51 26 8e
FIXUPS: 35061 12 14 fffff773 19 58 11 46 d 4d 30 42 12 33 44 a 1f 1b aa3
FIXUPS: 35504 22 a 6 22 a 6 9 6 20 f 81 30 53 a0 80 6 1c 5a 190 29 31 fffff193
FIXUPS: 34c1f 20 f 6 6 1a 3d a 58d 9 1e 6 3d 6 1e 6 6 f 18 6 2a 6 6 1e
FIXUPS: 35369 11 c 18 6 b6 9 1e 6 8 6 10 9 1e 6 22 b88 10d 19 6 1b 45 3f
FIXUPS: 362ea 48 d 30 69 c2 14 e 88 1d 1a 21 1b 14 44 29 14 18 54 ffffea2b
FIXUPS: 3512b 51 9d 14 a 946 76 17 1a 74 c 63 13 15 19 43 17 11 d 29 6c
FIXUPS: 35e7f 27 1b 1b 1b 1b 1b 1d 1d 1d 1d 17 19 1f 19 14 3340 43 b 24
FIXUPS: 3947e 16 12 8 14 14 16 18 15 15 12 14 1d 16 6f ab 1f 17 2e 12 9
FIXUPS: 3977c ffffc30b 4d 1d 15 36 33 2719 3f 116 60 60 60 60 19f 35 5
FIXUPS: 38771 40 b c 1c1 80 121 d9 ce 6d bf 5e 7c 216 84 2e 49 1d 8d 37
FIXUPS: 392ec 37 ffffdfba 18 84 80 10c 38 55 98 51 11 12 b6 5e 19 58 82
FIXUPS: 37935 48 55 a7 b0 134 60 60 60 60 18d 77 c8 b0 dc 16 3ea6 18 25
FIXUPS: 3985d ffffcffc 11f 8b 2a 26 19f 131 24 32 30 37 50 b 24 277 53
FIXUPS: 3713f c 26 5 2d 7b 6 6 6 31 5 56 48e4 6 f 17 2e 24 15 20 33 20
FIXUPS: 3bcaf 12 9 3d 26 1c 16 27 12 19 21 13 e 1a 72 2b 28 b9 9c 46 20
FIXUPS: 3c0c4 fffff7c4 1a 39 13 17 28 14 1f 8 32 20 3c d d 11 1f 1f 1b
FIXUPS: 3ba8e b e b 26 b e b 23 13 35 9 12 9 fffff994 1f 15 12 d 14 d d
FIXUPS: 3b5b4 28 42 27 1a 2c 31 18 6 25 1a e d 26 e 9 a 28 72 6 17 d 14
FIXUPS: 3b860 fffff7a6 9 45 1e 8 83 19 15 30 4d 16 4e 18 c 4d 19 16 20
FIXUPS: 3b31c 18 c 4f 8 39 12 2f 1a 42 1e 1d 54 16 fffff6e4 12 1c e e e
FIXUPS: 3ac5b 20 7 15 e d 40 22 1a d 17 17 27 24 2a 25 2b 20 2b e 3f 21
FIXUPS: 3af48 64 11 11 fffff087 1f1 60 fc 6 10a 33 40 2f 1f 1b 1b 26 6a
FIXUPS: 3a9c0 2a 25 6 22 28 55 a 4e 3e 16 1f d 32 d f 8 e 1aba 29 2f 18
FIXUPS: 3c3d3 21 19 8 21 c 10 9 fffffe41 ffffd5e1 1f 28 40 89 97 a 11 13
FIXUPS: 39a7c 28 12 3b 11 21 a1 23 2e6 2f 2a25 12 9 9 d 3b 11 20 10 2a
FIXUPS: 3ca21 14 1d 1e fffffd15 2d 10 a 6 22 47 fffffd09 e a 42 2d 19 23
FIXUPS: 3c620 42 1f c a60 1b 7c c fffff918 4c 28 16 10 6 22 12 3e f 2e
FIXUPS: 3cc04 14 2f 3a 23 18 5b 89 27 fffffabf 3b 10 6 6 c 6 1b 189a 1a
FIXUPS: 3e1ce 1d 3c 21 1f 16 8 2f ffffeb30 10 1f 25 38 13 32 7 6 d 1e 8
FIXUPS: 3cf17 10 1b 10 82 35 2c 3b 32 36 ad5 23 2d 15 1f 2d 28 3a 8b 11
FIXUPS: 3dd75 6 17 4a f 1c 2c 1a 2c 8d 11 2b 4e 26 1e 63 2e e 42 45 15
FIXUPS: 3e11d 2acd 18 ffffc5b3 18 3a 12 3f 20 36 3a 26 76 30 30 30 30 40
FIXUPS: 3d66c 74 12 65 2b 59 b8 19 8e 6 43 27 d 16b 5c 2b14 6d d 10 10
FIXUPS: 4074d 43 e 11 19 19 1a 13d 36 11 42 10 1b 13 f 9 1a 1a 23 39 23
FIXUPS: 40afd 11 3d 14 3a 3a fffff2d4 43 17 11 6 5b 40 d 1b 16 bb 1f 1a
FIXUPS: 400fe 10 a 10 13 10 65 142 d 1d 3a d5 e2 9d 9 23 6f 9 1e fffff416
FIXUPS: 3fa97 1f 1b 15 4b 11 22 52 e d 6 27 10 9 1a 26 35 2d 49 1b 1a e
FIXUPS: 3fd66 33 15 42 9 a 2e 58 8 fffff4fb 2f 2a 68 1e 3b 1c8 22 57 15
FIXUPS: 3f70a 1a 9a 58 17 a 27 1a 8 35 15 26 13 33 19 1e 37 15 2b 32 19
FIXUPS: 3fa4d fffff217 20 22 1b ce a 18 1c 37 18 23 1c 1e 26 f 13 1a 6b
FIXUPS: 3ef66 62 27 15 30 8f 41 22 40 1f 33 2c f b9 fffff4be 1d 1f 32 1f
FIXUPS: 3e803 3a 2f 4f 34 8d 72 17 1e 50 16 4b 13 27 40 a 26 1f 21 1a a
FIXUPS: 3ebea a 22 8 10 29 266f 50 6f 10 66 44 18 48 23 5a 3f 19 27 d8
FIXUPS: 41691 2a 23 2a ffffccc6 15 a6 4c 43 61 12 21 37 22 54 24 2e 76
FIXUPS: 41730 2e 39 10b 1e 23 fffff3d1 2e 86 2e 46 bd 21 2d 17 27 8a c
FIXUPS: 40fd9 36 d 2a 1f 29 57 bb 1e 3a 29 d 48 25 1132 fffffc79 10 35
FIXUPS: 420c8 fffffd0c 1d 27 17 1d 48 21 10 41 14 e 8 16 3f 11 26 8 31
FIXUPS: 4200f fffff94c 46 50 3b 4a 40 40 272 e31 8b 1f fffff8c9 13 10a
FIXUPS: 42663 15 37 2c e 2a 66 1f 3b 20 fffff992 35 10 29 12 18 18 b 14
FIXUPS: 422d5 38 13 58 16 d 15 1817 4d 30 1a ffffebd7 35 10 30 6 f 12 a
FIXUPS: 428e6 17 b 18 b 14 86 43 10 1b 6 d 2f 38 33 40 26 16 d 15 bc9 8
FIXUPS: 4375b 24 18 69 18 7c 32 19 26 24 3f 33 10 23 c d a 20 6f 18 44
FIXUPS: 43af2 2a 1f 12 24 10 c 10 a fffff754 8 23 14 8a 12 8 1f 1b 27 14
FIXUPS: 4346a 25 1a 19 36 4b d 4e 32 13 1e 18 4e 1c 19 11 15 17 2c 1e 8
FIXUPS: 42d46 12 3f d 63 12 29 19 e 3b 20 51 21 47 3a 25 1c 14 6 f 44 28
FIXUPS: 430d6 20 f 4c d 30 1e 26 b8 3a 1002 91 20 30 fffff906 2f 22 6 13
FIXUPS: 43d4e 21 38 17 17 2d d 10 16 21 3b 26 25 14e ad ffffebab 7 7 c
FIXUPS: 42cc5 10 1b 19 1d24 d c 13 d a 2b 59 80 23 47 fffff81d 26 1a 1a
FIXUPS: 4446a 28 51 b 16 28 70 2a 2c fffffb92 3a 17 6b 28 e 1a 17 2215
FIXUPS: 464db 34 1f 10 a 10 6 14 31 25 1e 2d 12 a 13 e c ffffe5a9 a 1e
FIXUPS: 446e0 24 a6 17 10c 3d 60 2e 16 36 36 1486 22 36 2f 3c 1f 2e 17
FIXUPS: 45fdf 36 120 29 d 18 18 28 8 16 5e 15 16 17 11 6 7a 48 d 26 2a
FIXUPS: 463d1 38 46 fffff0fc 1d b9 8f 1b 87 3d 8f 82 16 47 99 6f 47 16
FIXUPS: 45b05 45 16 1c 3b 7e 2c 68 1e 25 25 25 25 13 70 1a 4d fffff0ee
FIXUPS: 44f76 ee 1e 11 14 18 1d e 21 21 2b 58 98 15 14 2b 15 29 22 52 29
FIXUPS: 45385 40 15 26 13 6e 25 3c 13 1f 13cc fa 88 19 1c 2e fffffbd6 2b
FIXUPS: 466e9 11 18 d 12 1c d 34 28 23 b 11 e d ffffe4da 2d 5c 87 3f 3b
FIXUPS: 44eb0 33 11 49 2bd0 1c 9 15 b d b 6 18 30 1a 1b 2a 18 31 11 a 6
FIXUPS: 47c99 1a 28 33 3b 28 2e 2d e ffffea4c 10 1d 15 36 d43 13 15 14
FIXUPS: 4762e 26 30 29 fe 15 e 2d 35 4e a 30 9 a 1e 2b 3d 6c 9 b f 2a 9
FIXUPS: 47a25 13 33 6b 18 fffff704 1b 8 21 20 20 26 2a 2a 17 16 36 1c 25
FIXUPS: 47428 26 12 15 4c f d 19 16 f b 15 a 17 e 3b 17 10 fffff78b 1c
FIXUPS: 46da1 25 33 25 32 4b 6 70 2c 21 11 13 43 17 2c 5e d 18 37 e 22
FIXUPS: 470ff d c 1a 1b 48 17 17 b 13ec 2d 18 2d 24 19 18 25 c c 12 13
FIXUPS: 486e9 14 17 19 6 6 d ffffe3b1 3c 5c 27 42 2b 1a 12 1a 81 12 1a
FIXUPS: 46d2e 13c9 16 1c 27 16 1c 16 11 e 50 18 11 37 1c e 59 1e 12 d 34
FIXUPS: 48389 1b 2a 13 86 1c 19 18 82 2a 19 2a 1194 2a f 3e 1e 29 29 28
FIXUPS: 49876 b 8 a 11 e 16 28 14 ffffe515 11 40 41 1b 23 1a 4c 6b 29 65
FIXUPS: 48064 4c a 1b 12c6 22 f 1c 14 1a 21 17 17 13 c 26 3a 49 d 13 c
FIXUPS: 4955f 36 1a 25 1b 1a 17 a 11 d 2b 15 22 32 15 fffff686 1d 2b 1d
FIXUPS: 48dec 15 17 23 19 11 1a 3c bd d2 15 47 2d 2f 2c cc a 2d 26 d 14
FIXUPS: 49285 3b 3a 14 d 38 35 fffff631 16 10 f 4e a d a e 18 1d c 36 18
FIXUPS: 48b08 58 11 e 35 12 32 c 12 13 1c 1f 27 27 30 29 2f 10 1da0 35
FIXUPS: 4ab3d 3b 35 23 f 71 ffffdb35 19 12 1b 11 11 19 e b 8 18 24 f 19
FIXUPS: 488a0 1d 1a 14 19 35 19 14 d 2d 1cb1 25 21 2f 18 1e 10 10 14 26
FIXUPS: 4a761 7 4a d f 55 28 10 1d 10 d 13 10 d d d d d 23 a0 13 be fffff2a6
FIXUPS: 49d42 1f 410 7f ca 3a 40 13 13 4a 13 13 31 13 1d 13 1d 13 17 13
FIXUPS: 4a4b3 2d 13 17 12 f b 25 10 1a 10 1645 f 24 4e 67 39 c1 5d 13 ffffdb36
FIXUPS: 4997b 74 15 28 1e 1e 1e 1e 26 12 12 12 12 12 12 1b 99 20 13 2d
FIXUPS: 49c91 11 1a98 30 21 3a 6 6 7b 35 23 12 13 87 1a 21 c 36 15 12 d
FIXUPS: 4ba19 2f 61 16 15 b e 47 1a 21 14 23 1f fffff717 3b d 40 14 1c
FIXUPS: 4b3a0 38 13 11 8 36 3f 68 19 38 37 20 7b f 12 9 19 13 22 1d 11
FIXUPS: 4b6b9 11 28 e 23 fffff8a3 1a 35 c 19 13 11 1d 11 1b 17 15 d a 26
FIXUPS: 4b12b 12 b 18 27 32 29 1c d 2b 18 14 d 1e a 32 9 1e42 27 1c 24
FIXUPS: 4d1ca 30 85 28 23 3a 19 9f 12 b e 97 ffffd843 2b 9 1f 22 e 1b 3d
FIXUPS: 4adb7 14 1b b6 45 94 f 1a 1cb2 15 10 e 17 14 13 2a 6 1d 21 24 1c
FIXUPS: 4cd9b 27 19 a 7b 2e 1d 22 3d 3f 2a 1e 3c 17 2b 42 47 1a 48 fffff749
FIXUPS: 4c84e 29 10 13 2d 30 33 1d 41 18 1c 10 14 1d 3b 1b d 19 f 5f 10
FIXUPS: 4cb10 a 13 1a 29 10 40 5c c c fffff814 e 25 21 19 3d 33 f 16 6b
FIXUPS: 4c5d2 27 d 3b c 21 28 8 c e d 15 3b 34 13 1d 23 18 20 10 41 e fffff8c2
FIXUPS: 4c12a 1e e b e 24 a 10 d 18 e 1f 27 31 27 2d 1f 12 9 17 18 9 b
FIXUPS: 4c339 18 26 32 16 11 33 26 1194 1a 40 f 8 d ffffe81a 1c d 17 48
FIXUPS: 4bee7 1d e 22 27 20 15 13 15 f 13 38 b 11 31 9 1b 9 1e d b 189b
FIXUPS: 4d9a7 22 62 1a 23 1a 36 3a 36 18 3c 22 1f 21 37 21 32 95 80 1a
FIXUPS: 4ddc1 74 1a f 1b 11f fffff58c 1c 19 1e 11 bf8 24 e f 78 88 2d 2e
FIXUPS: 4e333 2a 2f fffffcad 1c f 1d e fffff65b 43 2c 32 3b 1d 16 8 6 6f
FIXUPS: 4d895 1b 1f 1b 1b 3c ec9 9 82 3a 19 13 e 43 f fffffa8f b0 14 26
FIXUPS: 4e4f1 30 2f 17 12 34 17 16 a 10 9 fffffdd0 fffffcf0 66 e e c 11
FIXUPS: 4e16a 2873 35 35 28 1f 41 12 9 b 1f 1a e 45 4a 46 9 11 d 18 ffffd9e3
FIXUPS: 4e646 24 18 10 60 4d a 29 1e 24 14 1e 189b 14 10 44 28 15 3c 24
FIXUPS: 50204 38 28 49 41 59 a6 70 21 59 2f9 17 36 11 3b 7 3d 27 49 1d
FIXUPS: 50955 c 48 d fffff0e9 1b 13 d 25 2d 11 6e 14 45 4b 15 11 1f 15
FIXUPS: 4fcee 29 c a 7 d 16 15 e e 32 22 17 1c9 15 16 40 fffff183 1e 2e
FIXUPS: 4f1fe 31 49 10 11 d 20 cb 3b b1 7b 25 ed b7 1d 51 99 11 d 57 163
FIXUPS: 4f9ac 7 12 11 f 76 10 2a fffff1a0 c df 53 16 41 29 1f 11 27 20
FIXUPS: 4ee89 3b 17 13 e 46 c4 b a 14 14 54 d d 17 14 13 d 10 4b 20 237e
FIXUPS: 51502 7 16 13 1a 25 32 11 14 14 c 12 25 26 17 19 1e 12 12 a 11
FIXUPS: 516da ffffd31d 10 18 3b 1f e7 49 4c 25 25b3 22 26 19 19 14 16 e
FIXUPS: 5129d 14 1a d a 29 22 14 16 18 23 17 10 e 1d 26 18 28 a 1c 25 d
FIXUPS: 514c3 a fffffa9b 13 10 10 1a 21 2b 2d 1c 15 15 18 f f 14 f f e
FIXUPS: 510f3 c 1b 9 c c c 9 9 c f 8 24 b fffffbac e 10 9 1d e 7 b 2c 15
FIXUPS: 50e05 6 11 14 e 11 11 1c 7 2e 10 e e 10 15 e 6 10 11 11 6 a 34c6
FIXUPS: 54454 19 5b 3f f 11 a 23 23 10 55 1d 24 16 1e 12 59 13 39 c4 aa
FIXUPS: 54890 16 1a ffffc3d5 3d 29 13 29 e 7 3279 2f 42 1f 24 14 c 16 1b
FIXUPS: 540eb 1f 11 2d 24 2b 1f a 12 8 3e 24 b 18 61 30 30 30 20 32 14
FIXUPS: 543e2 14 fffff6c1 14 25 40 25 3e 24 3c f 1f 25 45 32 c 21 f 2e
FIXUPS: 53d46 41 20 20 20 20 19 3d 3e 25 10 1b 10 8e 16 fffff6d3 33 38
FIXUPS: 53716 27 16 63 16 51 25 1a 79 18 1e c 12 1b 18 26 1b 24 b b b c
FIXUPS: 53a03 19 19 32 a 12 20 fffff7d2 20 26 1b 15 29 8 8 8 22 24 f f
FIXUPS: 533b9 4f c e 2e 10 18 1e d 1c 26 83 b d 14 15 37 3a 37 fffff8cc
FIXUPS: 52f2e 21 21 17 10 30 33 10 7 1c 4e 2a 13 c 2e 24 9 18 b b b 8 12
FIXUPS: 5317e 15 15 d 8 e 36 4f fffff8da 47 e 1d 9 25 30 17 1d 11 32 1e
FIXUPS: 52cb0 3a 13 18 b c 14 30 1b 10 11 2d 2e 17 17 14 14 4c 2d 38 fffff7e9
FIXUPS: 5270a 13 19 13 13 6 8e 30 3d 10 4f 17 11 1e 31 18 14 18 18 20 17
FIXUPS: 529e4 25 31 17 17 14 14 29 4c 18 fffff792 1c 22 13 13 25 21 23
FIXUPS: 523ef 17 13 6 6b d 10 1b 25 28 27 29 1b 14 2f 20 13 f f f 15 21
FIXUPS: 52676 5c fffff7dd f d d 1a 19 32 3b f 1f 17 3c 14 b 25 20 f 6 f
FIXUPS: 5214a d 10 1b 52 25 17 18 33 20 13 b b fffff86d 2b 12 12 1d 12
FIXUPS: 51bd2 1a 20 24 12 14 2b 12 12 1b 10 4d 12 12 22 12 12 2b 14 12
FIXUPS: 51df7 12 38 14 21 f 2d83 1e ffffcafe e 9 4b e 2b 10 13 25 6 13
FIXUPS: 51855 25 6 1e 10 1a 4c 2a f 12 9e 15 16 18 67 12 12 22 12 3406
FIXUPS: 54f19 9 66 2b 38 16 26 21 72 25 1e e 1f 16 7e 22 15 23 11 1f 8
FIXUPS: 54a76 15 10 1e 3a 73 1e 20 42 15 bfd e 38 27 1e 39 2c d 11 23 1e
FIXUPS: 5595c 79 1f 15 4f 39 fffff1c8 49 8 69 42 2f 3b 18 37 d 1b 16 10
FIXUPS: 54e68 f 456 52 43 23 13 1c 52 13 1c e 44 17 5b 19 13 1c 1c 13 62
FIXUPS: 555e9 35 2c 29 5a 24 30 19 15 21 1b 4d 13 2d76 9 7 6 c f 7 6 3b
FIXUPS: 585fc 13 a b 7 20 1f e e b 7 36 4c 46 1e 2a 25 13 d d f 9 ffffcaad
FIXUPS: 5818a 13 7 7 48 e 7 7 b6 e 44 12 6c e 53 14 2c 43 17 c f e a b
FIXUPS: 584d6 17 b a c b 7 6 fffff920 13 40 13 1a 20 7 19 a 14 2b 2c 59
FIXUPS: 57fe7 e 1e 21 6d f 7 8 19 b f 7 8 23 7 7 7 6 10 fffff820 1b 27
FIXUPS: 579d1 46 d 27 e 6 48 15a 3d 12 39 25 6 10 6 28 30 27 10 d 23 1f
FIXUPS: 57daf 9 d 20 d 43 b fffff795 11 11 11 11 1a 11 17 20 d e 13 a e
FIXUPS: 576ce f 12 11 b 2e 8 16 10 56 6 10 3d 2c 42 12 11 af fffff5c9 19
FIXUPS: 56f40 39 26 2e 83 4a 35 2a 19 e 39 26 2e 83 3c 26 49 30 30 49 30
FIXUPS: 57440 3c 12 1c 32 30 32 25 14 fffff2f6 16 1a 3a 10 12 4d 18 b 13
FIXUPS: 56992 14 4a 6b 12 22 39 37 35 7c 3b 32 38 6f 4c 3b 32 38 6f 4c
FIXUPS: 56eba 35 fffff1f1 3e 32 19 20 98 14 15 64 5c 85 70 e 23 29 29 4b
FIXUPS: 5656f 70 e 23 29 29 4b f2 12 1a 12 1a 3a 10 12 fffff352 e 16 e
FIXUPS: 55bed e 16 e 19 e 1d 12 30 16 16 16 19 1d 55 6 74 6 4e 2e 2e 19
FIXUPS: 55ed1 97 14 15 67 5a 2b6b 7 3b 7 36 31 7 1a 26 39 26 2a c a d e
FIXUPS: 58d78 18 2c 9 18 39 23 12 5c ffffcc0b 43 3d 16 a c 17 3acd 17 a
FIXUPS: 59674 13 fffff1d9 37 f 1a 26 e 23 e b e 17 f 3d 18 2e 28 25 1e
FIXUPS: 58a64 40 f 12 37 1a 17 48 33 402 3d 1a 57 14 18 10 4c 28 64 80
FIXUPS: 59201 3a 1e f 1d 5b 35 19 30 40 6c a 9 f 12 39 99 27 1a 84 65 1df1
FIXUPS: 5b457 f 40 b 16 57 58 d 8d 34 21 d f 55 b 40 14 f 3f b 16 b1 1f
FIXUPS: 5b8b6 44 2f 9 31 ffffd5b1 12 57 1a49 23 f c 12 1c 6a 28 91 1b 1a1
FIXUPS: 5ad65 46 2f 48 d 33 d 1d d 16 18 b b 30 9 be a 200 46 1d 1ae fffff019
FIXUPS: 5a442 31 15 1c e e 1c 26 e e 2a 5b 9 154 1c 1c 60 a a 2c 3c 91
FIXUPS: 5a8b9 57 14 14 1e 14 14 20 14 fffff4df 7 17 14 12 6 3b 9 15 9 40
FIXUPS: 59fc6 32 11 6 11 8 89 30 11 6 11 8 82 c 47 79 49 14 61 4d 2f fffff749
FIXUPS: 59af4 11 6 24 28 21 63 f 1d 15 25 33 3a 1a d 3a 47 9 15 9 12 6
FIXUPS: 59dad 12 2f 9 35 11 6 18 12 2619 a 2c 44 8c 1b cb 55 b9 45 2c 35
FIXUPS: 5c855 42 34 36 38 4e ffffce2c 1f 12 36 24 11 d f3 91 31 4a 15 31
FIXUPS: 59aa7 2078 14 208 52 da 6d 2b c5 28 8f d 2f d f 25 2a d 1a 1e 26
FIXUPS: 5c1fa 3a 14 10 d 41 2c bf 31 4b 3f 23 162c d4 147 1f 13 2b 54 4b
FIXUPS: 5de00 64 13 3b 97 59 3d 8d 50 75 1b 13 28 87 8c 1d 61 1d d 62 30
FIXUPS: 5e3e8 ffffd6f7 19 1b1d 28 15 58 5b 25 e f 2c 18 4f 27 21 21 13
FIXUPS: 5d87e 1d 1c 15 5f f 12 a 1c 17 17 1d 21 19 23 14 d fffff60c 9a
FIXUPS: 5d108 a 1a d 12 28 ec 3e c 16 13 1d 19 23 44 47 18 46 1f 2f 23
FIXUPS: 5d4b6 26 2c 14 32 17 18 5e 1d 5a84 ffffb3a1 ffffe5c8 6 10c 15 164
FIXUPS: 5cc85 29 f 12 18 17 17 6a 9e 2c 35 48 1f 14 f b 1a 16 19 1f a 1d
FIXUPS: 5cfdf 29 1d 5af3 42 72 3c 18 3f 5a 21 1b 15 51 d 33 19 1b 25 24
FIXUPS: 62e6f 1d 3c 10 31 2b e 16 8 1c 19 11 c 22 76 fffff635 7c 2e 12
FIXUPS: 62788 14 62 13 e 19 b 25 1d 1f e 17 c 16 12 39 1d 1b 11 e 23 16
FIXUPS: 62a24 29 16 22 2d 8 fffff6a2 48 8 39 1d 61 23 1e 32 33 24 1b 2e
FIXUPS: 62390 27 11 21 31 e 2a 47 a 34 d 5b 27 1b 56 27 1e 16 21 fffff583
FIXUPS: 61c2b 7f 63 2f 24 11 29 1d 43 1d 33 10 1a c 19 1e 2e 63 21 13 2d
FIXUPS: 62019 24 2b 30 1c c 14 14 30 20 fffff425 4e 29 23 18 26 d 26 30
FIXUPS: 616a4 2e c 1d 19 1e 26 5a 3f 53 62 5f 52 51 37 40 3c 10 41 2d 1c
FIXUPS: 61b2a 40 fffff58e 25 30 1e 3a 1a d 18 1c 33 15 35 33 1e 34 1c 1a
FIXUPS: 61349 1c 24 d 12 13 19 15 e 3f a 66 22 7 14 fffff6bf 15 34 d 15
FIXUPS: 60c2b 3b 2b 49 e c 2f 13 b c 35 2a e e 23 f 97 1f 3a 71 4b a 19
FIXUPS: 60fde 33 29 9c fffff71a 2f 28 1d 22 f 1f 12 a 9 a 22 10 1e 19 20
FIXUPS: 6097a 9 1a 19 c 17 3c 19 12 13 57 16 14 f 4e 49 fffff81e 1b c 25
FIXUPS: 603f3 11 a 20 15 c 1e 19 19 22 c 17 51 19 12 31 61 66 1a 11 1c
FIXUPS: 606c3 11 1d 52 d 3f a fffff6fd 32 21 10 22 1a 15 b 16 1c 39 21
FIXUPS: 5fff0 10 27 b7 5d 1a 11 14 24 53 4c 25 15 f 15 10 37 33 2f 36 fffff78f
FIXUPS: 5fb2a b 16 1e 22 6 22 4f c 31 c 19 c a f 2b 16 14 13 1d c a f 40
FIXUPS: 5fd7f 48 1f f 6 18 33 fffff81d d 8a 1e 7d d 23 10 27 30 25 13 18
FIXUPS: 5f890 1f 5 c 1f 20 1b 2a 23 1b 3a 22 26 9 1a 33 35 15 50 fffff738
FIXUPS: 5f245 35 26 23 15 c c 10 d 30 11 a 58 19 35 26 1b f 1c 19 b 2a
FIXUPS: 5f4ca 28 1f 3b 14 82 17 19 25 fffff7a3 42 20 2c 24 1a 18 1c 8 22
FIXUPS: 5ef0f 1d 3d 8 34 2a a 3e 20 c 4e 8 26 35 23 22 1b 29 16 25 1b f
FIXUPS: 5e85e 33 15 24 65 11 178 12 16 1c 9 c 48 17 14 1e 12 1b 40 14 9
FIXUPS: 5ec51 23 30 4e 22 36 1e 17 f 1e 1a 4978 93 fffff8f7 43 ffffb330
FIXUPS: 5e45d 18 22 85 13 1b 9a 21 3b 2e b 39 13 e 1e 29 33 1f e 17 c 15
FIXUPS: 5e7c2 b 12 30 35 49b9 a 34 20 1d 12 18 21 d 1f 49 1e 20 1d 14 2c
FIXUPS: 633e4 9 10 1f 67 c4 5d 1d 6 d 10 1c a6 31 1d 2e 3f8 6e 17 1f ea
FIXUPS: 63833 e 30 3b 16 28 1f 26 19 19 12 e 2a 12 1f 3c 6 12 e 12 12 fffff710
FIXUPS: 63181 34 c 1d d 1446 16 8e 1a 1c 60 49 4c 24 20 19 82 fffff787
FIXUPS: 64085 e 2d 27 a5 22 f 3d f 5a 6c 49 21 8b fffff928 fffffddc 33
FIXUPS: 63b08 a 17e3 2b 9c bf 36 17 1a9 45 5d 65 b 60 6f 2f b 8 14 ffffebcc
FIXUPS: 644a0 20 2c 30 12 2f 16 16 1b 1f 11 9 10 38 2040 10 1be ffffe0c4
FIXUPS: 64947 22 8 2e 19 21 8 26 c4 24 14a b7 5d 40 3b 36 5c 2b 3c 38 b1
FIXUPS: 65089 17 e6 2a 12 5f 1f 101d 1f 20 e 13 11 1d d 4a 19 f d f a 1b
FIXUPS: 663da 12 11 16 c 41 10 2f 2a 32 46 40 55 18 26 2f f fffff9d9 f
FIXUPS: 66049 f d d f e a 15 e 16 e 12 12 12 e e 1e e 1c 18 12 b c 13 b
FIXUPS: 661e1 b 43 15 f 67b fffff018 23 32 2f 4c 30 31 45 6 16 6 8 5f a
FIXUPS: 65b11 26 90 c 18 b4 18 1e2 12 e7 2e a 16 f f f f

 656 bytes saved through ICF

